c__builtin__
set
p0
((lp1
Vshop
p2
aVgt
p3
aVgs
p4
aVgr
p5
aVgold
p6
aVshow
p7
aVmoney
p8
aVcheap
p9
aVonomichi.hiroshima.jp
p10
aVorg.mo
p11
aVtrade
p12
aVgg
p13
aVgf
p14
aVgx.cn
p15
aVgs.cn
p16
aVga
p17
aVlove
p18
aVcom.hk
p19
aVvet
p20
aVgroup
p21
aVcm
p22
aVzone
p23
aVla
p24
aVtv
p25
aVtw
p26
aVtt
p27
aVyn.cn
p28
aVnet.cn
p29
aVli
p30
aVtn
p31
aVcom.pl
p32
aVtm
p33
aVtk
p34
aVedu.mo
p35
aVcom.au
p36
aVca
p37
aVly
p38
aVnet.tw
p39
aVdo
p40
aVjs.cn
p41
aVdj
p42
aVdk
p43
aVceo
p44
aVbid
p45
aVde
p46
aVorg.tw
p47
aVmba
p48
aVme
p49
aVgame
p50
aVbiz
p51
aVrest
p52
aVmom
p53
aVparty
p54
aVpress
p55
aVworld
p56
aVis
p57
aVname
p58
aVgift
p59
aVcz
p60
aVco.uk
p61
aVcom.mk
p62
aVrocks
p63
aVgd
p64
aVqpon
p65
aVuy
p66
aVgq
p67
aVgov.cn
p68
aVah.cn
p69
aVmn
p70
aVtel
p71
aVee
p72
aVchurch
p73
aVor.jp
p74
aVqh.cn
p75
aVus
p76
aVeu
p77
aVcat
p78
aVba
p79
aVru
p80
aVrw
p81
aVbio
p82
aVcom.cn
p83
aVrs
p84
aVpet
p85
aVreview
p86
aVgo.jp
p87
aVasia
p88
aVren
p89
aVmarket
p90
aVnet
p91
aVemail
p92
aVred
p93
aVmen
p94
aVrun
p95
aVuk
p96
aVbb
p97
aVnu
p98
aVbo
p99
aVjp
p100
aVbi
p101
aVpub
p102
aVhost
p103
aVws
p104
aVedu.tw
p105
aVedu.cn
p106
aVorg
p107
aVby
p108
aVbz
p109
aVlc
p110
aVfaith
p111
aVstore
p112
aVcom.co
p113
aVdesi
p114
aVco.nz
p115
aVpl
p116
aVplus
p117
aVltd
p118
aVstudio
p119
aVxj.cn
p120
aVcom
p121
aVgz.cn
p122
aVch
p123
aVco
p124
aVcn
p125
aVfamily
p126
aVcc
p127
aVwin
p128
aVxyz
p129
aVvin
p130
aVcf
p131
aVone
p132
aVcq.cn
p133
aVvip
p134
aVcx
p135
aVlol
p136
aVcom.tw
p137
aVnews
p138
aVcloud
p139
aVnet.nz
p140
aVcity
p141
aVhb.cn
p142
aVzj.cn
p143
aVpw
p144
aVpt
p145
aVsx.cn
p146
aVtop
p147
aVnagoya
p148
aVxin
p149
aVlive
p150
aVlu
p151
aVkr
p152
aVpe
p153
aVph
p154
aVnm.cn
p155
aVtoday
p156
aVcom.ph
p157
aVlife
p158
aVgov.tw
p159
aVclub
p160
aVooo
p161
aVxxx
p162
aVht
p163
aVha.cn
p164
aVhk
p165
aVsx
p166
aVhn
p167
aVcom.mo
p168
aVhk.cn
p169
aVland
p170
aVinfo
p171
aVmd
p172
aVma
p173
aVdog
p174
aVml
p175
aVgy
p176
aVwork
p177
aVcash
p178
aVmk
p179
aVtc
p180
aVorg.hk
p181
aVms
p182
aVfun
p183
aVmy
p184
aVmx
p185
aVbet
p186
aVvc
p187
aVwang
p188
aVag
p189
aVvg
p190
aVai
p191
aVpro
p192
aVir
p193
aVam
p194
aVsite
p195
aVvn
p196
aVsn.cn
p197
aVac.cn
p198
aVas
p199
aVim
p200
aVat
p201
aVio
p202
aVin
p203
aVorg.sg
p204
aVax
p205
aVbj.cn
p206
aVid
p207
aVorg.cn
p208
aVnl
p209
aVguru
p210
aVtravel
p211
aVhr
p212
aVonline
p213
aVtech
p214
aVne.jp
p215
aVevents
p216
aVblog
p217
aVfr
p218
aVgames
p219
aVgd.cn
p220
aVsd.cn
p221
aVgov.mo
p222
aVac.jp
p223
aVkim
p224
aVsh.cn
p225
aVdate
p226
aVloan
p227
aVfm
p228
aVmobi
p229
aVcenter
p230
aVband
p231
aVjl.cn
p232
aVspace
p233
aVsale
p234
aVjx.cn
p235
aVco.jp
p236
aVhe.cn
p237
aVsh
p238
aVso
p239
aVsm
p240
aVsl
p241
aVcom.sg
p242
aVsg
p243
aVtj.cn
p244
aVsd
p245
atp246
Rp247
.