((lp0
V00037*.com
p1
aV0003#*.com
p2
aV000##a.com
p3
aV00080*.com
p4
aV00##0b.com
p5
aV00##1277&.com
p6
aV0040*.com
p7
aV004#$.com
p8
aV00#0$.com
p9
aV007552#.com
p10
aV00755*.com
p11
aV00##.com
p12
aV4040***&.com
p13
aV40686*.com
p14
aV4107###&.com
p15
aV0034*.com
p16
aV00228**&.com
p17
aV00##8aa&.com
p18
aV00550*.com
p19
aV00#5#a.com
p20
aV00899*.com
p21
aV40002*.com
p22
aV4036*.com
p23
aV4#36*.com
p24
aV4#36e.com
p25
aV4##6e.com
p26
aV4148**&.com
p27
aV4##8bb.com
p28
aV4180*.com
p29
aV4165*.com
p30
aV41##y.com
p31
aV4231*.com
p32
aV4288**&.com
p33
aV4288*.com
p34
aV00##524&.com
p35
aV##00524&.com
p36
aV44442***&.com
p37
aV###7175&.com
p38
aV44##3801&.com
p39
aV44##4001&.com
p40
aV4408**&.com
p41
aV4#08ff.com
p42
aV4508**&.com
p43
aV41##.com
p44
aV4##8.com
p45
aV4318*.com
p46
aV4#18k.com
p47
aV4#18*.com
p48
aV45679*.com
p49
aV45681##&.com
p50
aV4630*.com
p51
aV41##i.com
p52
aV4#2#i.com
p53
aV4727*.com
p54
aV4457*.com
p55
aV4##7g.com
p56
aV4#5#g.com
p57
aV48##o.com
p58
aV454600#.com
p59
aV4##6001.com
p60
aV485600#.com
p61
aV4##6a.com
p62
aV4852*.com
p63
aV485#a.com
p64
aV485#*.com
p65
aV48##9.cc
p66
aV495*.cc
p67
aV#ok88.com
p68
aV500#.cc
p69
aV5#0#.cc
p70
aV5003.%
p71
aV500#.am
p72
aV#00$2.com
p73
aV500$$.com
p74
aV5027**&.com
p75
aV00558**&.com
p76
aV#05#8bb.com
p77
aV50588**&.com
p78
aV5##88aa.com
p79
aV5099**&.com
p80
aV5101**&.com
p81
aV511811*.com
p82
aV4212*.com
p83
aV4##2g.com
p84
aV#21#g.com
p85
aV5214*.com
p86
aV52#4*.com
p87
aV52##a.com
p88
aV5#14*.com
p89
aV5296**&.com
p90
aV53358*.com
p91
aV5436*.com
p92
aV54##.com
p93
aV44##1524&.com
p94
aV##221524&.com
p95
aV##78945&.com
p96
aV541#$.com
p97
aV5#1$s.com
p98
aV#6#0.com
p99
aV54888**&.com
p100
aV00##1524&.com
p101
aV##001524&.com
p102
aV55519*.com
p103
aV555##a.com
p104
aV55523*.com
p105
aV555##b.com
p106
aV555#3$.com
p107
aV55534*.com
p108
aV###4107&.com
p109
aV55545*.com
p110
aV44##524&.com
p111
aV##66524&.com
p112
aV55##524&.com
p113
aV5296*.com
p114
aV5#9#f.com
p115
aV5595*.com
p116
aV55990*.com
p117
aV5599$*.com
p118
aV55##1524&.com
p119
aV56561*.com
p120
aV5###8455&.com
p121
aV56#js.com
p122
aV56##.com
p123
aV#8#.cc
p124
aV5858####&.cc
p125
aVbet365001##&.com
p126
aVbet36500##0.com
p127
aVbet36500###&.com
p128
aVbm50#.com
p129
aVbm777#.com
p130
aV**00668&.com
p131
aV*44.am
p132
aVhg71###&.com
p133
aVhg91999*.com
p134
aVhg9497.%
p135
aV**9497&.com
p136
aVg73##.com
p137
aVg7##9.com
p138
aVg#3#9.com
p139
aV*7359.com
p140
aV*1386.com
p141
aV*6261.com
p142
aV***801&.com
p143
aVjs0002#.com
p144
aVjs000#5.com
p145
aVjs000##.com
p146
aV423300#.com
p147
aV$$33003.com
p148
aVjs3300#.com
p149
aVjs33311#.com
p150
aVjs3##88.com
p151
aVjs##123.com
p152
aVjs#0123.com
p153
aVjs7799#.com
p154
aVjs999#.com
p155
aVjsc201#.com
p156
aVjsc20##.com
p157
aVjsdc.%
p158
aVjsvip-#.com
p159
aVf6##1.com
p160
aV*6011.com
p161
aVkaisa#.com
p162
aVl086**&.com
p163
aV*5383.com
p164
aVleboxpj#.com
p165
aVleboxpj###&.com
p166
aVleboxpj##&.com
p167
aVlhg11##&.com
p168
aVlhg###&.com
p169
aV**6728&.com
p170
aVls99#.com
p171
aVmgm112##&.com
p172
aVmgm11#66.com
p173
aVmgm130#.com
p174
aVmgm#77.com
p175
aVmgm#99.com
p176
aVmgm##.com
p177
aVmgm#7.com
p178
aV*93488.com
p179
aV**00080&.com
p180
aV*#.cc
p181
aV*590#.com
p182
aVp960#.com
p183
aVpj1117#.com
p184
aVpj21*.com
p185
aVpj5959#.com
p186
aVpj6##8.com
p187
aVpj808#.com
p188
aVpj8#8#.com
p189
aVpj9891#.com
p190
aVpjgj00#.com
p191
aV*553066.com
p192
aV**8828&.com
p193
aV*4042.com
p194
aVm#19#.com
p195
aV*6199.com
p196
aV*97679.com
p197
aVshalong0#.com
p198
aVshalongguoji.%
p199
aVsz##55&.com
p200
aV*2490.com
p201
aV*00228.com
p202
aVk##11.com
p203
aV*0811.com
p204
aV*35151.com
p205
aV*55523.com
p206
aV*7191.com
p207
aVv##.com
p208
aV*#6.com
p209
aVv#3#9.com
p210
aV*6369.com
p211
aVv93###&.com
p212
aVv9830#.com
p213
aVvip5##.cc
p214
aVvip#76#6.com
p215
aVvns60#1.com
p216
aV**23488&.com
p217
aV**44442&.com
p218
aVweide###&.net
p219
aVwlxe0#.com
p220
aVwn0#.com
p221
aVwn##.com
p222
aV**6534&.com
p223
aV**7966&.com
p224
aVwww-1366*.com
p225
aV*779911.com
p226
aV*99138.com
p227
aVxam#88.com
p228
aVxh87##.com
p229
aVxh87#8.com
p230
aVxin888#.net
p231
aVxjs3##.com
p232
aVxjs##666&.com
p233
aVxjs55###&.com
p234
aVxjs##888&.com
p235
aVxjs##999&.com
p236
aVxpj00#0.com
p237
aVxpj1111#.com
p238
aVxpj1#3#.com
p239
aVxpj15#8.com
p240
aVxpj#3#.com
p241
aVxpj3399*.com
p242
aVxpj35#.com
p243
aVxpj####0&.com
p244
aVxpj####1&.com
p245
aVxpj#.am
p246
aVxpj7##7.com
p247
aVxpj8##.com
p248
aVxpj9998#.com
p249
aVxpj#3#5.com
p250
aVxpj$$55.com
p251
aVxpj$$66.com
p252
aVxpjav1#.com
p253
aVxpjav##.com
p254
aVxpj$$99.com
p255
aVxpjj#.com
p256
aVxx33*.com
p257
aV**5486&.com
p258
aV*0088hg.com
p259
aV*04889.com
p260
aVv442#.com
p261
aV*44#0.com
p262
aV$#660.com
p263
aV$$660.com
p264
aVy###0&.com
p265
aV*8309.com
p266
aV*99345.am
p267
aVyd222#.com
p268
aVyh0#5555.com
p269
aVyh3434#.com
p270
aV$77$.com
p271
aV$776.com
p272
aV$$76.com
p273
aVyh888a#.com
p274
aVyl123##&.com
p275
aV**661.com
p276
aVyl6##.com
p277
aVyl700#.net
p278
aVyl78#.com
p279
aVyl$$1.com
p280
aVyl9#00.com
p281
aVylam#.com
p282
aVylg##789&.com
p283
aVyongli.%
p284
aV*41669.com
p285
aV55##.com
p286
aV$5#7.com
p287
aV*65056.com
p288
aV*7378.com
p289
aVz99138.%
p290
aVzhcp##&.com
p291
aV**cp88.com
p292
a(lp293
(lp294
V00037b.com
p295
aV00037c.com
p296
aV00037v.com
p297
aV00037w.com
p298
aV00037z.com
p299
aV00038c.com
p300
aV00038d.com
p301
aV00038f.com
p302
aV00038h.com
p303
aV00038i.com
p304
aV00038j.com
p305
aV00038k.com
p306
aV00038l.com
p307
aV00038m.com
p308
aV00038n.com
p309
aV00038o.com
p310
aV00038p.com
p311
aV00038q.com
p312
aV00038r.com
p313
aV00038s.com
p314
aV00038t.com
p315
aV00038u.com
p316
aV00038w.com
p317
aV00038x.com
p318
aV00038y.com
p319
aV00038z.com
p320
aV00080a.com
p321
aag294
ag294
a(lp322
V00080c.com
p323
aV00080d.com
p324
aV00080e.com
p325
aV00080f.com
p326
aV00080g.com
p327
aV00080h.com
p328
aV00080i.com
p329
aV00080j.com
p330
aV00080k.com
p331
aV00080l.com
p332
aV00080m.com
p333
aV00080n.com
p334
aV00080o.com
p335
aV00080p.com
p336
aV00080q.com
p337
aV00080r.com
p338
aV00080s.com
p339
aV00080t.com
p340
aV00080u.com
p341
aV00080w.com
p342
aV00080x.com
p343
aV00080y.com
p344
aV00080z.com
p345
aV00550b.com
p346
aag322
a(lp347
V00441277.com
p348
aV00551277.com
p349
aV00661277.com
p350
aV00991277.com
p351
aa(lp352
V0040v.com
p353
aV00411.com
p354
aV00708.com
p355
aag352
ag352
a(lp356
V0075523.com
p357
aa(lp358
V00755c.com
p359
aV00755d.com
p360
aV00755e.com
p361
aa(lp362
V0080.com
p363
aa(lp364
V4040nnn.com
p365
aV4040zzz.com
p366
aa(lp367
V40686b.com
p368
aV40686c.com
p369
aV40686f.com
p370
aV40686g.com
p371
aa(lp372
V4107111.com
p373
aV4107222.com
p374
aV4107444.com
p375
aV4107666.com
p376
aa(lp377
V0034b.com
p378
aV0034c.com
p379
aV0034d.com
p380
aV0034e.com
p381
aV0034f.com
p382
aV0034h.com
p383
aV0034i.com
p384
aV0034j.com
p385
aV0034k.com
p386
aV0034l.com
p387
aV0034m.com
p388
aV0034n.com
p389
aV0034o.com
p390
aV0034p.com
p391
aV0034q.com
p392
aV0034r.com
p393
aV0034t.com
p394
aV0034u.com
p395
aV0034w.com
p396
aV0034x.com
p397
aV0034y.com
p398
aV0034z.com
p399
aa(lp400
V00228bb.com
p401
aV00228cc.com
p402
aV00228dd.com
p403
aV00228ee.com
p404
aV00228gg.com
p405
aV00228hh.com
p406
aV00228jj.com
p407
aV00228kk.com
p408
aV00228mm.com
p409
aV00228nn.com
p410
aV00228pp.com
p411
aV00228qq.com
p412
aV00228rr.com
p413
aV00228ss.com
p414
aV00228tt.com
p415
aV00228uu.com
p416
aV00228vv.com
p417
aV00228ww.com
p418
aV00228xx.com
p419
aV00228yy.com
p420
aV00228zz.com
p421
aV00558aa.com
p422
aag400
a(lp423
V00550b.com
p424
aV00550c.com
p425
aV00550d.com
p426
aV00550e.com
p427
aV00550f.com
p428
aV00550g.com
p429
aV00550h.com
p430
aV00550i.com
p431
aV00550j.com
p432
aV00550k.com
p433
aV00550l.com
p434
aV00550m.com
p435
aV00550n.com
p436
aV00550o.com
p437
aV00550p.com
p438
aV00550q.com
p439
aV00550r.com
p440
aV00550s.com
p441
aV00550t.com
p442
aV00550u.com
p443
aV00550v.com
p444
aV00550w.com
p445
aV00550x.com
p446
aV00550y.com
p447
aV00550z.com
p448
aV00755a.com
p449
aag423
a(lp450
V00899b.com
p451
aV00899c.com
p452
aV00899f.com
p453
aV00899h.com
p454
aV00899i.com
p455
aV00899j.com
p456
aV00899k.com
p457
aV00899m.com
p458
aV00899o.com
p459
aV00899p.com
p460
aV00899q.com
p461
aV00899s.com
p462
aV00899t.com
p463
aa(lp464
V40002b.com
p465
aV40002c.com
p466
aV40002d.com
p467
aV40002e.com
p468
aV40002f.com
p469
aV40002g.com
p470
aV40002h.com
p471
aV40002i.com
p472
aV40002j.com
p473
aV40002l.com
p474
aV40002m.com
p475
aV40002n.com
p476
aV40002o.com
p477
aV40002p.com
p478
aV40002q.com
p479
aV40002r.com
p480
aV40002s.com
p481
aV40002t.com
p482
aV40002u.com
p483
aV40002v.com
p484
aV40002w.com
p485
aV40002x.com
p486
aV40002y.com
p487
aV40002z.com
p488
aa(lp489
V4036g.com
p490
aV4036h.com
p491
aV4036i.com
p492
aV4036j.com
p493
aV4036l.com
p494
aV4036m.com
p495
aV4036n.com
p496
aV4036o.com
p497
aV4036p.com
p498
aV4036q.com
p499
aV4036r.com
p500
aV4036s.com
p501
aV4036t.com
p502
aV4036u.com
p503
aV4036w.com
p504
aV4036x.com
p505
aV4036y.com
p506
aV4036z.com
p507
aV4136a.com
p508
aV4136b.com
p509
aV4136c.com
p510
aV4136d.com
p511
aV4136e.com
p512
aV4136f.com
p513
aV4136g.com
p514
aV4136i.com
p515
aV4136j.com
p516
aV4136k.com
p517
aV4136l.com
p518
aV4136m.com
p519
aV4136n.com
p520
aV4136o.com
p521
aV4136p.com
p522
aV4136q.com
p523
aV4136r.com
p524
aV4136s.com
p525
aV4136u.com
p526
aV4136v.com
p527
aV4136w.com
p528
aV4136x.com
p529
aV4136z.com
p530
aV4856e.com
p531
aag489
ag489
ag489
a(lp532
V4148cc.com
p533
aV4148dd.com
p534
aV4148ee.com
p535
aV4148ff.com
p536
aV4148gg.com
p537
aV4148hh.com
p538
aV4148ii.com
p539
aV4148jj.com
p540
aV4148ll.com
p541
aV4148mm.com
p542
aV4148nn.com
p543
aV4148oo.com
p544
aV4148pp.com
p545
aV4148qq.com
p546
aV4148rr.com
p547
aV4148ss.com
p548
aV4148tt.com
p549
aV4148uu.com
p550
aV4148vv.com
p551
aV4148ww.com
p552
aV4148xx.com
p553
aV4148yy.com
p554
aV4148zz.com
p555
aV4288bb.com
p556
aV4508bb.com
p557
aag532
a(lp558
V4180d.com
p559
aV4180e.com
p560
aV4180g.com
p561
aV4180h.com
p562
aV4180l.com
p563
aV4180n.com
p564
aV4180o.com
p565
aV4180u.com
p566
aV4180v.com
p567
aV4180w.com
p568
aV4180x.com
p569
aV4180y.com
p570
aa(lp571
V4165z.com
p572
aV4180y.com
p573
aag571
a(lp574
V4231b.com
p575
aV4231c.com
p576
aV4231d.com
p577
aa(lp578
V4288bb.com
p579
aV4288cc.com
p580
aV4288jj.com
p581
aV4288ll.com
p582
aV4288mm.com
p583
aV4288nn.com
p584
aV4288oo.com
p585
aV4288pp.com
p586
aV4288qq.com
p587
aV4288rr.com
p588
aV4288ss.com
p589
aV4288tt.com
p590
aV4288uu.com
p591
aV4288vv.com
p592
aV4288xx.com
p593
aV4288yy.com
p594
aV4288zz.com
p595
aa(lp596
V4288k.com
p597
aV4288l.com
p598
aV4288o.com
p599
aV4288p.com
p600
aV4288q.com
p601
aV4288t.com
p602
aV4288u.com
p603
aV4288v.com
p604
aV4288w.com
p605
aV4288x.com
p606
aV4288y.com
p607
aa(lp608
V0044524.com
p609
aV0055524.com
p610
aV4400524.com
p611
aag608
a(lp612
V44442sss.com
p613
aV44442uuu.com
p614
aV44442vvv.com
p615
aa(lp616
V4447175.com
p617
aV5557175.com
p618
aa(lp619
V44883801.com
p620
aa(lp621
V44884001.com
p622
aa(lp623
V4408gg.com
p624
aV4408hh.com
p625
aV4408ii.com
p626
aV4408jj.com
p627
aV4408kk.com
p628
aV4408nn.com
p629
aV4408oo.com
p630
aV4408pp.com
p631
aV4408ss.com
p632
aV4408ww.com
p633
aV4508ff.com
p634
aag623
a(lp635
V4508ee.com
p636
aV4508ff.com
p637
aV4508hh.com
p638
aV4508ii.com
p639
aV4508jj.com
p640
aV4508kk.com
p641
aV4508ll.com
p642
aV4508mm.com
p643
aV4508nn.com
p644
aV4508oo.com
p645
aV4508pp.com
p646
aV4508qq.com
p647
aV4508rr.com
p648
aV4508ss.com
p649
aV4508tt.com
p650
aV4508uu.com
p651
aV4508vv.com
p652
aV4508ww.com
p653
aV4508xx.com
p654
aV4508zz.com
p655
aa(lp656
V4165.com
p657
aV4518.com
p658
aag656
a(lp659
V4318l.com
p660
aV4318m.com
p661
aV4318n.com
p662
aV4318o.com
p663
aV4318q.com
p664
aV4318r.com
p665
aV4318s.com
p666
aV4318t.com
p667
aV4318u.com
p668
aV4318v.com
p669
aV4318w.com
p670
aV4318x.com
p671
aV4318y.com
p672
aV4318z.com
p673
aV4518k.com
p674
aV4518l.com
p675
aV4518m.com
p676
aV4518n.com
p677
aV4518p.com
p678
aV4518q.com
p679
aV4518r.com
p680
aV4518s.com
p681
aV4518t.com
p682
aV4518u.com
p683
aV4518v.com
p684
aV4518w.com
p685
aV4518y.com
p686
aag659
ag659
a(lp687
V45679c.com
p688
aV45679d.com
p689
aV45679k.com
p690
aV45679q.com
p691
aV45679v.com
p692
aV45679w.com
p693
aa(lp694
V4568133.com
p695
aV4568144.com
p696
aV4568155.com
p697
aV4568166.com
p698
aV4568177.com
p699
aV4568188.com
p700
aV4568199.com
p701
aa(lp702
V4630i.com
p703
aV4630j.com
p704
aV4630k.com
p705
aV4630m.com
p706
aV4630n.com
p707
aV4630o.com
p708
aV4630p.com
p709
aV4630q.com
p710
aV4630r.com
p711
aV4630s.com
p712
aV4630t.com
p713
aV4630u.com
p714
aV4630v.com
p715
aV4630w.com
p716
aV4630x.com
p717
aV4630y.com
p718
aa(lp719
V4136i.com
p720
aV4727i.com
p721
aag719
a(lp722
V4727e.com
p723
aV4727f.com
p724
aV4727g.com
p725
aV4727h.com
p726
aV4727i.com
p727
aV4727l.com
p728
aV4727m.com
p729
aV4727n.com
p730
aV4727p.com
p731
aV4727q.com
p732
aV4727r.com
p733
aV4727s.com
p734
aV4727t.com
p735
aV4727u.com
p736
aV4727v.com
p737
aV4727w.com
p738
aV4727x.com
p739
aV4727y.com
p740
aV4727z.com
p741
aa(lp742
V4457h.com
p743
aV4457i.com
p744
aV4457k.com
p745
aV4457l.com
p746
aV4457m.com
p747
aV4457n.com
p748
aV4457o.com
p749
aV4457p.com
p750
aV4457q.com
p751
aV4457r.com
p752
aV4457s.com
p753
aV4457u.com
p754
aV4457v.com
p755
aV4457x.com
p756
aV4457y.com
p757
aV4727g.com
p758
aV4852g.com
p759
aag742
ag742
a(lp760
V4852o.com
p761
aa(lp762
V4546005.com
p763
aV4856001.com
p764
aag762
a(lp765
V4856001.com
p766
aV4856002.com
p767
aV4856003.com
p768
aV4856004.com
p769
aV4856005.com
p770
aV4856006.com
p771
aV4856007.com
p772
aV4856008.com
p773
aV4856009.com
p774
aa(lp775
V4856a.com
p776
aa(lp777
V4852b.com
p778
aV4852c.com
p779
aV4852d.com
p780
aV4852e.com
p781
aV4852f.com
p782
aV4852g.com
p783
aV4852h.com
p784
aV4852i.com
p785
aV4852j.com
p786
aV4852k.com
p787
aV4852l.com
p788
aV4852m.com
p789
aV4852o.com
p790
aV4852p.com
p791
aV4852q.com
p792
aV4852r.com
p793
aV4852s.com
p794
aV4852t.com
p795
aV4852u.com
p796
aV4852v.com
p797
aV4852w.com
p798
aV4852x.com
p799
aV4852y.com
p800
aV4852z.com
p801
aV4856a.com
p802
aV4856c.com
p803
aV4856d.com
p804
aV4856e.com
p805
aV4856f.com
p806
aag777
ag777
a(lp807
V48789.cc
p808
aa(lp809
V495c.cc
p810
aV495d.cc
p811
aV495e.cc
p812
aV495f.cc
p813
aV495g.cc
p814
aV495h.cc
p815
aV495i.cc
p816
aV495k.cc
p817
aV495l.cc
p818
aV495m.cc
p819
aV495n.cc
p820
aV495o.cc
p821
aV495p.cc
p822
aV495q.cc
p823
aV495r.cc
p824
aV495s.cc
p825
aV495t.cc
p826
aV495u.cc
p827
aV495v.cc
p828
aV495w.cc
p829
aV495x.cc
p830
aa(lp831
V4ok88.com
p832
aa(lp833
V5003.cc
p834
aV5607.cc
p835
aag833
a(lp836
V5003.cc
p837
aV5004.am
p838
aag836
a(lp839
V500w2.com
p840
aa(lp841
V500w2.com
p842
aV500w3.com
p843
aV500w4.com
p844
aV500w5.com
p845
aV500w7.com
p846
aV500w8.com
p847
aa(lp848
V5027bb.com
p849
aV5027cc.com
p850
aV5027dd.com
p851
aV5027ee.com
p852
aV5027ff.com
p853
aV5027gg.com
p854
aV5027hh.com
p855
aV5027ii.com
p856
aV5027jj.com
p857
aV5027kk.com
p858
aV5027ll.com
p859
aV5027mm.com
p860
aV5027nn.com
p861
aV5027oo.com
p862
aV5027pp.com
p863
aV5027qq.com
p864
aV5027rr.com
p865
aV5027ss.com
p866
aV5027tt.com
p867
aV5027uu.com
p868
aV5027vv.com
p869
aV5027ww.com
p870
aV5027xx.com
p871
aV5027yy.com
p872
aV5027zz.com
p873
aa(lp874
V00558cc.com
p875
aV00558dd.com
p876
aV00558ee.com
p877
aV00558gg.com
p878
aV00558hh.com
p879
aV00558ii.com
p880
aV00558kk.com
p881
aV00558ll.com
p882
aV00558mm.com
p883
aV00558nn.com
p884
aV00558oo.com
p885
aV00558pp.com
p886
aV00558qq.com
p887
aV00558rr.com
p888
aV00558tt.com
p889
aV00558uu.com
p890
aV00558vv.com
p891
aV00558ww.com
p892
aV00558xx.com
p893
aV00558yy.com
p894
aV00558zz.com
p895
aV50588bb.com
p896
aag874
a(lp897
V50588bb.com
p898
aV50588cc.com
p899
aV50588dd.com
p900
aV50588ee.com
p901
aV50588ff.com
p902
aV50588gg.com
p903
aV50588hh.com
p904
aV50588ii.com
p905
aV50588jj.com
p906
aV50588kk.com
p907
aV50588ll.com
p908
aV50588mm.com
p909
aV50588nn.com
p910
aV50588oo.com
p911
aV50588pp.com
p912
aV50588qq.com
p913
aV50588rr.com
p914
aV50588ss.com
p915
aV50588tt.com
p916
aV50588uu.com
p917
aV50588vv.com
p918
aV50588ww.com
p919
aV50588xx.com
p920
aV50588zz.com
p921
aV54888aa.com
p922
aag897
a(lp923
V5099dd.com
p924
aV5099gg.com
p925
aV5099hh.com
p926
aV5099ii.com
p927
aV5099jj.com
p928
aV5099rr.com
p929
aV5099tt.com
p930
aV5099zz.com
p931
aa(lp932
V5101bb.com
p933
aa(lp934
V511811c.com
p935
aV511811d.com
p936
aV511811e.com
p937
aV511811f.com
p938
aV511811g.com
p939
aa(lp940
V4212h.com
p941
aV4212i.com
p942
aV4212j.com
p943
aV4212k.com
p944
aV4212l.com
p945
aV4212m.com
p946
aV4212n.com
p947
aV4212o.com
p948
aV4212p.com
p949
aV4212q.com
p950
aV4212r.com
p951
aV4212s.com
p952
aV4212t.com
p953
aV4212u.com
p954
aV4212w.com
p955
aV4212x.com
p956
aV4212y.com
p957
aV4212z.com
p958
aV4852g.com
p959
aV5214g.com
p960
aag940
ag940
a(lp961
V5214c.com
p962
aV5214d.com
p963
aV5214e.com
p964
aV5214f.com
p965
aV5214g.com
p966
aV5214h.com
p967
aV5214q.com
p968
aV5214r.com
p969
aV5214s.com
p970
aV5214t.com
p971
aV5214u.com
p972
aV5214v.com
p973
aV5214w.com
p974
aV5214x.com
p975
aV5214y.com
p976
aV5214z.com
p977
aV5224k.com
p978
aV5254w.com
p979
aV5296a.com
p980
aV5614m.com
p981
aag961
ag961
ag961
a(lp982
V5296hh.com
p983
aV5296zz.com
p984
aa(lp985
V53358c.com
p986
aV53358d.com
p987
aV53358f.com
p988
aV53358g.com
p989
aV53358h.com
p990
aV53358i.com
p991
aV53358k.com
p992
aV53358l.com
p993
aV53358m.com
p994
aV53358o.com
p995
aV53358p.com
p996
aV53358q.com
p997
aV53358r.com
p998
aV53358s.com
p999
aV53358t.com
p1000
aV53358u.com
p1001
aV53358v.com
p1002
aV53358w.com
p1003
aV53358x.com
p1004
aV53358y.com
p1005
aV53358z.com
p1006
aa(lp1007
V5436h.com
p1008
aV5436i.com
p1009
aV5436j.com
p1010
aa(lp1011
V5489.com
p1012
aa(lp1013
V44331524.com
p1014
aV44551524.com
p1015
aV44661524.com
p1016
aV44771524.com
p1017
aV44991524.com
p1018
aV55221524.com
p1019
aag1013
a(lp1020
V5578945.com
p1021
aa(lp1022
V54111.com
p1023
aV561js.com
p1024
aag1022
a(lp1025
V5680.com
p1026
aa(lp1027
V54888cc.com
p1028
aV54888ee.com
p1029
aV54888gg.com
p1030
aV54888hh.com
p1031
aV54888ii.com
p1032
aV54888jj.com
p1033
aV54888kk.com
p1034
aV54888ll.com
p1035
aV54888mm.com
p1036
aV54888nn.com
p1037
aV54888oo.com
p1038
aV54888pp.com
p1039
aV54888tt.com
p1040
aV54888vv.com
p1041
aV54888ww.com
p1042
aV54888xx.com
p1043
aV54888yy.com
p1044
aa(lp1045
V00111524.com
p1046
aV00221524.com
p1047
aV00331524.com
p1048
aV00441524.com
p1049
aV00551524.com
p1050
aV00661524.com
p1051
aV00771524.com
p1052
aV00881524.com
p1053
aV00991524.com
p1054
aV44001524.com
p1055
aV55001524.com
p1056
aag1045
a(lp1057
V55519c.com
p1058
aV55523a.com
p1059
aV55534a.com
p1060
aag1057
a(lp1061
V55523d.com
p1062
aV55523e.com
p1063
aV55523f.com
p1064
aV55523g.com
p1065
aV55523h.com
p1066
aV55523i.com
p1067
aV55523j.com
p1068
aV55523k.com
p1069
aV55523l.com
p1070
aV55523m.com
p1071
aV55523n.com
p1072
aV55523o.com
p1073
aV55523p.com
p1074
aV55523q.com
p1075
aV55523r.com
p1076
aV55523s.com
p1077
aV55523t.com
p1078
aV55523u.com
p1079
aV55523v.com
p1080
aV55523w.com
p1081
aV55523x.com
p1082
aV55523y.com
p1083
aV55523z.com
p1084
aV55534b.com
p1085
aV55545b.com
p1086
aV555838.com
p1087
aag1061
ag1061
a(lp1088
V55534e.com
p1089
aV55534f.com
p1090
aV55534y.com
p1091
aa(lp1092
V5554107.com
p1093
aa(lp1094
V55545i.com
p1095
aV55545j.com
p1096
aV55545n.com
p1097
aV55545q.com
p1098
aV55545x.com
p1099
aV55545y.com
p1100
aa(lp1101
V4499524.com
p1102
aV5566524.com
p1103
aag1101
a(lp1104
V5522524.com
p1105
aV5533524.com
p1106
aV5566524.com
p1107
aa(lp1108
V5296h.com
p1109
aV5296z.com
p1110
aV5595f.com
p1111
aag1108
a(lp1112
V5595b.com
p1113
aV5595d.com
p1114
aV5595e.com
p1115
aV5595f.com
p1116
aV5595h.com
p1117
aV5595i.com
p1118
aV5595j.com
p1119
aV5595k.com
p1120
aV5595l.com
p1121
aV5595m.com
p1122
aV5595n.com
p1123
aV5595p.com
p1124
aV5595r.com
p1125
aV5595s.com
p1126
aV5595t.com
p1127
aV5595u.com
p1128
aV5595v.com
p1129
aV5595y.com
p1130
aa(lp1131
V55990c.com
p1132
aV55990d.com
p1133
aV55990e.com
p1134
aV55990f.com
p1135
aV55990g.com
p1136
aV55990h.com
p1137
aV5599pj.com
p1138
aag1131
a(lp1139
V55221524.com
p1140
aV55331524.com
p1141
aV55441524.com
p1142
aV55771524.com
p1143
aV55881524.com
p1144
aV55991524.com
p1145
aa(lp1146
V56561b.com
p1147
aV56561c.com
p1148
aV56561d.com
p1149
aV56561e.com
p1150
aV56561f.com
p1151
aV56561g.com
p1152
aV56561h.com
p1153
aV56561j.com
p1154
aV56561k.com
p1155
aV56561m.com
p1156
aV56561p.com
p1157
aV56561t.com
p1158
aV56561v.com
p1159
aV56561w.com
p1160
aV56561y.com
p1161
aV56561z.com
p1162
aa(lp1163
V56668455.com
p1164
aa(lp1165
V563js.com
p1166
aV565js.com
p1167
aV566js.com
p1168
aa(lp1169
V5680.com
p1170
aa(lp1171
V585.cc
p1172
aa(lp1173
V58589999.cc
p1174
aa(lp1175
Vbet36500111.com
p1176
aVbet36500220.com
p1177
aag1175
a(lp1178
Vbet36500666.com
p1179
aVbet36500888.com
p1180
aa(lp1181
Vbm504.com
p1182
aVbm505.com
p1183
aVbm506.com
p1184
aVbm508.com
p1185
aVbm509.com
p1186
aa(lp1187
Vbm7779.com
p1188
aa(lp1189
Vgg00668.com
p1190
aVhh00668.com
p1191
aa(lp1192
Vx44.am
p1193
aa(lp1194
Vhg71888.com
p1195
aa(lp1196
Vhg91999d.com
p1197
aVhg91999e.com
p1198
aVhg91999f.com
p1199
aVhg91999g.com
p1200
aVhg91999h.com
p1201
aVhg91999i.com
p1202
aVhg91999j.com
p1203
aVhg91999k.com
p1204
aVhg91999l.com
p1205
aVhg91999n.com
p1206
aVhg91999o.com
p1207
aVhg91999p.com
p1208
aVhg91999q.com
p1209
aVhg91999r.com
p1210
aVhg91999s.com
p1211
aVhg91999t.com
p1212
aVhg91999u.com
p1213
aVhg91999w.com
p1214
aVhg91999y.com
p1215
aa(lp1216
Vhg9497.org
p1217
aVhg9497.vip
p1218
aa(lp1219
Vhh9497.com
p1220
aa(lp1221
Vg7378.com
p1222
aVg7439.com
p1223
aVg8309.com
p1224
aVi7359.com
p1225
aag1221
ag1221
ag1221
a(lp1226
Vj1386.com
p1227
aVz1386.com
p1228
aa(lp1229
Vh6261.com
p1230
aVi6261.com
p1231
aVj6261.com
p1232
aVk6261.com
p1233
aa(lp1234
Vjjj801.com
p1235
aVkkk801.com
p1236
aa(lp1237
Vjs00026.com
p1238
aVjs00027.com
p1239
aVjs00035.com
p1240
aVjs00037.com
p1241
aVjs00086.com
p1242
aVjs00095.com
p1243
aag1237
ag1237
a(lp1244
V4233008.com
p1245
aVjs33003.com
p1246
aag1244
a(lp1247
Vjs33002.com
p1248
aVjs33003.com
p1249
aVjs33004.com
p1250
aVjs33005.com
p1251
aa(lp1252
Vjs333114.com
p1253
aVjs333115.com
p1254
aVjs333116.com
p1255
aVjs333117.com
p1256
aVjs333118.com
p1257
aa(lp1258
Vjs33888.com
p1259
aa(lp1260
Vjs36123.com
p1261
aVjs40123.com
p1262
aVjs46123.com
p1263
aag1260
a(lp1264
Vjs77996.com
p1265
aa(lp1266
Vjs9997.com
p1267
aa(lp1268
Vjsc2018.com
p1269
aVjsc2019.com
p1270
aVjsc2020.com
p1271
aag1268
a(lp1272
Vjsdc.tk
p1273
aa(lp1274
Vjsvip-2.com
p1275
aVjsvip-4.com
p1276
aVjsvip-5.com
p1277
aVjsvip-6.com
p1278
aVjsvip-7.com
p1279
aVjsvip-8.com
p1280
aVjsvip-9.com
p1281
aa(lp1282
Vf6261.com
p1283
aVk6011.com
p1284
aVt6011.com
p1285
aag1282
a(lp1286
Vkaisa1.com
p1287
aa(lp1288
Vl086cc.com
p1289
aVl086dd.com
p1290
aVl086ee.com
p1291
aVl086ff.com
p1292
aVl086gg.com
p1293
aVl086hh.com
p1294
aVl086ii.com
p1295
aVl086jj.com
p1296
aVl086tt.com
p1297
aa(lp1298
Vl5383.com
p1299
aVm5383.com
p1300
aa(lp1301
Vleboxpj2.com
p1302
aVleboxpj3.com
p1303
aVleboxpj4.com
p1304
aa(lp1305
Vleboxpj666.com
p1306
aa(lp1307
Vleboxpj11.com
p1308
aVleboxpj22.com
p1309
aVleboxpj44.com
p1310
aVleboxpj55.com
p1311
aVleboxpj66.com
p1312
aVleboxpj77.com
p1313
aVleboxpj88.com
p1314
aa(lp1315
Vlhg1166.com
p1316
aVlhg1177.com
p1317
aVlhg1199.com
p1318
aa(lp1319
Vlhg888.com
p1320
aa(lp1321
Vii6728.com
p1322
aVjj6728.com
p1323
aVkk6728.com
p1324
aVll6728.com
p1325
aVuu6728.com
p1326
aVvv6728.com
p1327
aVxx6728.com
p1328
aa(lp1329
Vls993.com
p1330
aa(lp1331
Vmgm11288.com
p1332
aVmgm11366.com
p1333
aVmgm11466.com
p1334
aVmgm11566.com
p1335
aVmgm11766.com
p1336
aVmgm11966.com
p1337
aag1331
a(lp1338
Vmgm1302.com
p1339
aVmgm1303.com
p1340
aVmgm1304.com
p1341
aa(lp1342
Vmgm377.com
p1343
aVmgm677.com
p1344
aa(lp1345
Vmgm599.com
p1346
aVmgm699.com
p1347
aVmgm799.com
p1348
aa(lp1349
Vmgm65.com
p1350
aVmgm67.com
p1351
aVmgm87.com
p1352
aVmgm97.com
p1353
aag1349
a(lp1354
Vh93488.com
p1355
aVi93488.com
p1356
aVj93488.com
p1357
aVk93488.com
p1358
aVl93488.com
p1359
aVm93488.com
p1360
aVn93488.com
p1361
aVo93488.com
p1362
aVx93488.com
p1363
aVz93488.com
p1364
aa(lp1365
Vff00080.com
p1366
aVgg00080.com
p1367
aVkk00080.com
p1368
aVmm00080.com
p1369
aVnn00080.com
p1370
aVoo00080.com
p1371
aa(lp1372
Vt8.cc
p1373
aa(lp1374
Vp5903.com
p1375
aVp5904.com
p1376
aVp5905.com
p1377
aVp5906.com
p1378
aVp5907.com
p1379
aa(lp1380
Vp9603.com
p1381
aVp9605.com
p1382
aVp9607.com
p1383
aVp9608.com
p1384
aVp9609.com
p1385
aa(lp1386
Vpj11172.com
p1387
aVpj11173.com
p1388
aVpj11175.com
p1389
aVpj11176.com
p1390
aVpj11178.com
p1391
aVpj11179.com
p1392
aa(lp1393
Vpj21c.com
p1394
aVpj21d.com
p1395
aVpj21e.com
p1396
aVpj21f.com
p1397
aVpj21g.com
p1398
aVpj21k.com
p1399
aa(lp1400
Vpj59592.com
p1401
aVpj59594.com
p1402
aa(lp1403
Vpj6858.com
p1404
aa(lp1405
Vpj8086.com
p1406
aVpj8280.com
p1407
aag1405
a(lp1408
Vpj98912.com
p1409
aVpj98913.com
p1410
aVpj98914.com
p1411
aa(lp1412
Vpjgj007.com
p1413
aVpjgj008.com
p1414
aa(lp1415
Vg553066.com
p1416
aVh553066.com
p1417
aVk553066.com
p1418
aVm553066.com
p1419
aVp553066.com
p1420
aVq553066.com
p1421
aVs553066.com
p1422
aVt553066.com
p1423
aa(lp1424
Vqq8828.com
p1425
aa(lp1426
Vg4042.com
p1427
aVh4042.com
p1428
aVj4042.com
p1429
aVm4042.com
p1430
aVn4042.com
p1431
aVr4042.com
p1432
aVu4042.com
p1433
aa(lp1434
Vm7191.com
p1435
aVp6199.com
p1436
aVs6199.com
p1437
aVt6199.com
p1438
aVy6199.com
p1439
aag1434
a(lp1440
Vo97679.com
p1441
aVp97679.com
p1442
aVq97679.com
p1443
aVs97679.com
p1444
aVu97679.com
p1445
aa(lp1446
Vshalong08.com
p1447
aVshalong09.com
p1448
aa(lp1449
Vshalongguoji.cc
p1450
aVshalongguoji.com
p1451
aVshalongguoji.tv
p1452
aa(lp1453
Vsz7755.com
p1454
aa(lp1455
Vh2490.com
p1456
aVj2490.com
p1457
aVl2490.com
p1458
aVm2490.com
p1459
aVn2490.com
p1460
aVu2490.com
p1461
aVz2490.com
p1462
aa(lp1463
Vr00228.com
p1464
aVt00228.com
p1465
aVu00228.com
p1466
aVv00228.com
p1467
aVx00228.com
p1468
aVy00228.com
p1469
aVz00228.com
p1470
aa(lp1471
Vk6011.com
p1472
aVt0811.com
p1473
aVv0811.com
p1474
aag1471
a(lp1475
Vh35151.com
p1476
aVi35151.com
p1477
aVj35151.com
p1478
aVl35151.com
p1479
aVm35151.com
p1480
aVn35151.com
p1481
aVq35151.com
p1482
aVr35151.com
p1483
aVs35151.com
p1484
aVt35151.com
p1485
aVu35151.com
p1486
aVv35151.com
p1487
aVw35151.com
p1488
aVx35151.com
p1489
aVy35151.com
p1490
aVz35151.com
p1491
aa(lp1492
Vg55523.com
p1493
aVh55523.com
p1494
aVk55523.com
p1495
aVl55523.com
p1496
aVm55523.com
p1497
aVn55523.com
p1498
aVq55523.com
p1499
aVr55523.com
p1500
aVs55523.com
p1501
aVt55523.com
p1502
aVu55523.com
p1503
aVv55523.com
p1504
aVw55523.com
p1505
aVx55523.com
p1506
aVy55523.com
p1507
aVz55523.com
p1508
aa(lp1509
Vg7191.com
p1510
aVh7191.com
p1511
aVj7191.com
p1512
aVm7191.com
p1513
aVn7191.com
p1514
aVp7191.com
p1515
aVr7191.com
p1516
aVs7191.com
p1517
aVt7191.com
p1518
aVu7191.com
p1519
aVv7191.com
p1520
aVw7191.com
p1521
aVx7191.com
p1522
aVy7191.com
p1523
aa(lp1524
Vv62.com
p1525
aVv82.com
p1526
aVw26.com
p1527
aag1524
a(lp1528
Vv8309.com
p1529
aVw6369.com
p1530
aag1528
a(lp1531
Vv93444.com
p1532
aa(lp1533
Vv98302.com
p1534
aVv98304.com
p1535
aVv98305.com
p1536
aVv98306.com
p1537
aVv98309.com
p1538
aa(lp1539
Vvip585.cc
p1540
aa(lp1541
Vvip77606.com
p1542
aa(lp1543
Vvns6041.com
p1544
aVvns6051.com
p1545
aVvns6071.com
p1546
aa(lp1547
Vjj23488.com
p1548
aVkk23488.com
p1549
aVss23488.com
p1550
aVtt23488.com
p1551
aVuu23488.com
p1552
aVvv23488.com
p1553
aVyy23488.com
p1554
aVzz23488.com
p1555
aa(lp1556
Vff44442.com
p1557
aVgg44442.com
p1558
aVhh44442.com
p1559
aVii44442.com
p1560
aVjj44442.com
p1561
aVkk44442.com
p1562
aVmm44442.com
p1563
aVoo44442.com
p1564
aVpp44442.com
p1565
aVqq44442.com
p1566
aVrr44442.com
p1567
aVss44442.com
p1568
aVuu44442.com
p1569
aVvv44442.com
p1570
aVww44442.com
p1571
aVxx44442.com
p1572
aa(lp1573
Vweide222.net
p1574
aVweide333.net
p1575
aVweide444.net
p1576
aVweide555.net
p1577
aVweide666.net
p1578
aVweide777.net
p1579
aVweide999.net
p1580
aa(lp1581
Vwlxe02.com
p1582
aVwlxe03.com
p1583
aVwlxe04.com
p1584
aVwlxe05.com
p1585
aVwlxe06.com
p1586
aVwlxe07.com
p1587
aVwlxe08.com
p1588
aa(lp1589
Vwn05.com
p1590
aVwn09.com
p1591
aVwn57.com
p1592
aag1589
a(lp1593
Vhh6534.com
p1594
aVii6534.com
p1595
aVjj6534.com
p1596
aVkk6534.com
p1597
aVll6534.com
p1598
aVmm6534.com
p1599
aVnn6534.com
p1600
aVpp6534.com
p1601
aVrr6534.com
p1602
aVss6534.com
p1603
aVuu6534.com
p1604
aVvv6534.com
p1605
aVww6534.com
p1606
aVzz6534.com
p1607
aa(lp1608
Vww7966.com
p1609
aa(lp1610
Vwww-1366c.com
p1611
aa(lp1612
Vh779911.com
p1613
aVi779911.com
p1614
aVj779911.com
p1615
aVl779911.com
p1616
aVm779911.com
p1617
aVn779911.com
p1618
aVp779911.com
p1619
aVq779911.com
p1620
aVr779911.com
p1621
aVs779911.com
p1622
aVt779911.com
p1623
aVu779911.com
p1624
aVw779911.com
p1625
aVx779911.com
p1626
aVy779911.com
p1627
aVz779911.com
p1628
aa(lp1629
Vh99138.com
p1630
aVo99138.com
p1631
aVp99138.com
p1632
aVq99138.com
p1633
aVr99138.com
p1634
aVv99138.com
p1635
aVw99138.com
p1636
aVx99138.com
p1637
aVz99138.com
p1638
aa(lp1639
Vxam288.com
p1640
aa(lp1641
Vxh8713.com
p1642
aVxh8714.com
p1643
aVxh8715.com
p1644
aVxh8717.com
p1645
aVxh8718.com
p1646
aVxh8719.com
p1647
aVxh8720.com
p1648
aag1641
a(lp1649
Vxin8883.net
p1650
aVxin8884.net
p1651
aVxin8889.net
p1652
aa(lp1653
Vxjs363.com
p1654
aa(lp1655
Vxjs22666.com
p1656
aVxjs33666.com
p1657
aVxjs55666.com
p1658
aVxjs77666.com
p1659
aVxjs88666.com
p1660
aVxjs99666.com
p1661
aa(lp1662
Vxjs55999.com
p1663
aVxjs66888.com
p1664
aVxjs77888.com
p1665
aVxjs99888.com
p1666
aag1662
a(lp1667
Vxjs77999.com
p1668
aVxjs88999.com
p1669
aa(lp1670
Vxpj0080.com
p1671
aa(lp1672
Vxpj11115.com
p1673
aa(lp1674
Vxpj1538.com
p1675
aa(lp1676
Vxpj1568.com
p1677
aVxpj1578.com
p1678
aa(lp1679
Vxpj335.com
p1680
aVxpj839.com
p1681
aa(lp1682
Vxpj3399c.com
p1683
aVxpj3399d.com
p1684
aVxpj3399e.com
p1685
aVxpj3399f.com
p1686
aa(lp1687
Vxpj358.com
p1688
aVxpj359.com
p1689
aa(lp1690
Vxpj33330.com
p1691
aVxpj44440.com
p1692
aa(lp1693
Vxpj44441.com
p1694
aa(lp1695
Vxpj4.am
p1696
aVxpj6.am
p1697
aa(lp1698
Vxpj7897.com
p1699
aa(lp1700
Vxpj898.com
p1701
aa(lp1702
Vxpj99982.com
p1703
aVxpj99988.com
p1704
aa(lp1705
Vxpj5345.com
p1706
aVxpjav55.com
p1707
aag1705
a(lp1708
Vxpjav66.com
p1709
aa(lp1710
Vxpjav11.com
p1711
aVxpjav12.com
p1712
aVxpjav15.com
p1713
aVxpjav16.com
p1714
aVxpjav18.com
p1715
aVxpjav19.com
p1716
aVxpjav22.com
p1717
aVxpjav24.com
p1718
aVxpjav25.com
p1719
aVxpjav26.com
p1720
aVxpjav27.com
p1721
aVxpjav29.com
p1722
aVxpjav55.com
p1723
aVxpjav66.com
p1724
aVxpjav77.com
p1725
aVxpjav88.com
p1726
aVxpjav99.com
p1727
aag1710
a(lp1728
Vxpjav99.com
p1729
aa(lp1730
Vxpjj2.com
p1731
aVxpjj3.com
p1732
aVxpjj4.com
p1733
aVxpjj5.com
p1734
aVxpjj6.com
p1735
aVxpjj7.com
p1736
aVxpjj8.com
p1737
aa(lp1738
Vxx33e.com
p1739
aVxx33f.com
p1740
aVxx33g.com
p1741
aVxx33h.com
p1742
aVxx33i.com
p1743
aVxx33l.com
p1744
aVxx33o.com
p1745
aVxx33p.com
p1746
aVxx33q.com
p1747
aVxx33r.com
p1748
aVxx33s.com
p1749
aVxx33t.com
p1750
aVxx33u.com
p1751
aVxx33v.com
p1752
aVxx33w.com
p1753
aVxx33x.com
p1754
aVxx33y.com
p1755
aVxx33z.com
p1756
aa(lp1757
Vgg5486.com
p1758
aVhh5486.com
p1759
aVii5486.com
p1760
aVjj5486.com
p1761
aVkk5486.com
p1762
aVll5486.com
p1763
aVmm5486.com
p1764
aVnn5486.com
p1765
aVoo5486.com
p1766
aVpp5486.com
p1767
aVqq5486.com
p1768
aVrr5486.com
p1769
aVss5486.com
p1770
aVtt5486.com
p1771
aVvv5486.com
p1772
aVww5486.com
p1773
aVxx5486.com
p1774
aVyy5486.com
p1775
aVzz5486.com
p1776
aa(lp1777
Vl0088hg.com
p1778
aVr0088hg.com
p1779
aVs0088hg.com
p1780
aVt0088hg.com
p1781
aVu0088hg.com
p1782
aVv0088hg.com
p1783
aVw0088hg.com
p1784
aVx0088hg.com
p1785
aVy0088hg.com
p1786
aa(lp1787
Vi04889.com
p1788
aVj04889.com
p1789
aVk04889.com
p1790
aVl04889.com
p1791
aVm04889.com
p1792
aVn04889.com
p1793
aVo04889.com
p1794
aVp04889.com
p1795
aVq04889.com
p1796
aVr04889.com
p1797
aVs04889.com
p1798
aVt04889.com
p1799
aVu04889.com
p1800
aVv04889.com
p1801
aVw04889.com
p1802
aVx04889.com
p1803
aVy04889.com
p1804
aVz04889.com
p1805
aa(lp1806
Vv4421.com
p1807
aVv4423.com
p1808
aVv4424.com
p1809
aVy4440.com
p1810
aag1806
a(lp1811
Vy6660.com
p1812
aVyl660.com
p1813
aag1811
a(lp1814
Vy2220.com
p1815
aVy3330.com
p1816
aVy4440.com
p1817
aVy6660.com
p1818
aa(lp1819
Vg8309.com
p1820
aVh8309.com
p1821
aVi8309.com
p1822
aVj8309.com
p1823
aVk8309.com
p1824
aVl8309.com
p1825
aVm8309.com
p1826
aVn8309.com
p1827
aVq8309.com
p1828
aVr8309.com
p1829
aVt8309.com
p1830
aVu8309.com
p1831
aVv8309.com
p1832
aVw8309.com
p1833
aVx8309.com
p1834
aVy8309.com
p1835
aVz8309.com
p1836
aa(lp1837
Vi99345.am
p1838
aVj99345.am
p1839
aVk99345.am
p1840
aVl99345.am
p1841
aVm99345.am
p1842
aVn99345.am
p1843
aVp99345.am
p1844
aVq99345.am
p1845
aVt99345.am
p1846
aVu99345.am
p1847
aVv99345.am
p1848
aVw99345.am
p1849
aVx99345.am
p1850
aVy99345.am
p1851
aVz99345.am
p1852
aa(lp1853
Vyd2223.com
p1854
aVyd2226.com
p1855
aVyd2229.com
p1856
aa(lp1857
Vyh025555.com
p1858
aVyh035555.com
p1859
aVyh055555.com
p1860
aVyh065555.com
p1861
aVyh075555.com
p1862
aVyh085555.com
p1863
aVyh095555.com
p1864
aa(lp1865
Vyh34342.com
p1866
aVyh34343.com
p1867
aVyh34344.com
p1868
aVyh34346.com
p1869
aVyh34347.com
p1870
aVyh34348.com
p1871
aVyh34349.com
p1872
aa(lp1873
Vv77r.com
p1874
aVx776.com
p1875
aVyh76.com
p1876
aag1873
ag1873
a(lp1877
Vyh888a4.com
p1878
aVyh888a6.com
p1879
aVyh888a8.com
p1880
aa(lp1881
Vyl12333.com
p1882
aa(lp1883
Vyl661.com
p1884
aa(lp1885
Vyl660.com
p1886
aVyl661.com
p1887
aVyl682.com
p1888
aVyl683.com
p1889
aVyl685.com
p1890
aa(lp1891
Vyl7002.net
p1892
aVyl7003.net
p1893
aVyl7004.net
p1894
aVyl7005.net
p1895
aVyl7006.net
p1896
aVyl7008.net
p1897
aVyl7009.net
p1898
aa(lp1899
Vyl782.com
p1900
aVylam1.com
p1901
aag1899
a(lp1902
Vyl9300.com
p1903
aVyl9400.com
p1904
aVyl9500.com
p1905
aVyl9600.com
p1906
aa(lp1907
Vylam1.com
p1908
aVylam2.com
p1909
aVylam3.com
p1910
aVylam4.com
p1911
aVylam5.com
p1912
aVylam6.com
p1913
aVylam7.com
p1914
aVylam9.com
p1915
aa(lp1916
Vylg66789.com
p1917
aVylg77789.com
p1918
aa(lp1919
Vyongli.tw
p1920
aa(lp1921
Vv41669.com
p1922
aVx41669.com
p1923
aVy41669.com
p1924
aVz41669.com
p1925
aa(lp1926
V5595.com
p1927
aVz567.com
p1928
aag1926
a(lp1929
Vh65056.com
p1930
aVj65056.com
p1931
aVk65056.com
p1932
aVl65056.com
p1933
aVq65056.com
p1934
aVr65056.com
p1935
aVs65056.com
p1936
aVt65056.com
p1937
aVw65056.com
p1938
aVx65056.com
p1939
aVy65056.com
p1940
aVz65056.com
p1941
aa(lp1942
Vg7378.com
p1943
aVh7378.com
p1944
aVk7378.com
p1945
aVl7378.com
p1946
aVn7378.com
p1947
aVp7378.com
p1948
aVq7378.com
p1949
aVr7378.com
p1950
aVs7378.com
p1951
aVt7378.com
p1952
aVu7378.com
p1953
aVv7378.com
p1954
aVw7378.com
p1955
aVx7378.com
p1956
aVy7378.com
p1957
aVz7378.com
p1958
aa(lp1959
Vz99138.com
p1960
aa(lp1961
Vzhcp88.com
p1962
aa(lp1963
Vzhcp88.com
p1964
aatp1965
.