(lp0
V00001524.com
p1
aV0000524.com
p2
aV00037a.com
p3
aV00037b.com
p4
aV00037c.com
p5
aV00037v.com
p6
aV00037w.com
p7
aV00037z.com
p8
aV00038c.com
p9
aV00038d.com
p10
aV00038f.com
p11
aV00038h.com
p12
aV00038i.com
p13
aV00038j.com
p14
aV00038k.com
p15
aV00038l.com
p16
aV00038m.com
p17
aV00038n.com
p18
aV00038o.com
p19
aV00038p.com
p20
aV00038q.com
p21
aV00038r.com
p22
aV00038s.com
p23
aV00038t.com
p24
aV00038u.com
p25
aV00038w.com
p26
aV00038x.com
p27
aV00038y.com
p28
aV00038z.com
p29
aV0004107.com
p30
aV0007175.com
p31
aV00080a.com
p32
aV00080b.com
p33
aV00080c.com
p34
aV00080d.com
p35
aV00080e.com
p36
aV00080f.com
p37
aV00080g.com
p38
aV00080h.com
p39
aV00080i.com
p40
aV00080j.com
p41
aV00080k.com
p42
aV00080l.com
p43
aV00080m.com
p44
aV00080n.com
p45
aV00080o.com
p46
aV00080p.com
p47
aV00080q.com
p48
aV00080r.com
p49
aV00080s.com
p50
aV00080t.com
p51
aV00080u.com
p52
aV00080w.com
p53
aV00080x.com
p54
aV00080y.com
p55
aV00080z.com
p56
aV00111524.com
p57
aV00221524.com
p58
aV00228aa.com
p59
aV00228bb.com
p60
aV00228cc.com
p61
aV00228dd.com
p62
aV00228ee.com
p63
aV00228gg.com
p64
aV00228hh.com
p65
aV00228jj.com
p66
aV00228kk.com
p67
aV00228mm.com
p68
aV00228nn.com
p69
aV00228pp.com
p70
aV00228qq.com
p71
aV00228rr.com
p72
aV00228ss.com
p73
aV00228tt.com
p74
aV00228uu.com
p75
aV00228vv.com
p76
aV00228ww.com
p77
aV00228xx.com
p78
aV00228yy.com
p79
aV00228zz.com
p80
aV003049.com
p81
aV00331277.com
p82
aV00331524.com
p83
aV0034.com
p84
aV0034a.com
p85
aV0034b.com
p86
aV0034c.com
p87
aV0034d.com
p88
aV0034e.com
p89
aV0034f.com
p90
aV0034h.com
p91
aV0034i.com
p92
aV0034j.com
p93
aV0034k.com
p94
aV0034l.com
p95
aV0034m.com
p96
aV0034n.com
p97
aV0034o.com
p98
aV0034p.com
p99
aV0034q.com
p100
aV0034r.com
p101
aV0034t.com
p102
aV0034u.com
p103
aV0034w.com
p104
aV0034x.com
p105
aV0034y.com
p106
aV0034z.com
p107
aV0040.cc
p108
aV0040c.com
p109
aV0040v.com
p110
aV00411.com
p111
aV00441277.com
p112
aV00441524.com
p113
aV0044524.com
p114
aV00550a.com
p115
aV00550b.com
p116
aV00550c.com
p117
aV00550d.com
p118
aV00550e.com
p119
aV00550f.com
p120
aV00550g.com
p121
aV00550h.com
p122
aV00550i.com
p123
aV00550j.com
p124
aV00550k.com
p125
aV00550l.com
p126
aV00550m.com
p127
aV00550n.com
p128
aV00550o.com
p129
aV00550p.com
p130
aV00550q.com
p131
aV00550r.com
p132
aV00550s.com
p133
aV00550t.com
p134
aV00550u.com
p135
aV00550v.com
p136
aV00550w.com
p137
aV00550x.com
p138
aV00550y.com
p139
aV00550z.com
p140
aV00551277.com
p141
aV00551524.com
p142
aV0055524.com
p143
aV00558aa.com
p144
aV00558bb.com
p145
aV00558cc.com
p146
aV00558dd.com
p147
aV00558ee.com
p148
aV00558gg.com
p149
aV00558hh.com
p150
aV00558ii.com
p151
aV00558kk.com
p152
aV00558ll.com
p153
aV00558mm.com
p154
aV00558nn.com
p155
aV00558oo.com
p156
aV00558pp.com
p157
aV00558qq.com
p158
aV00558rr.com
p159
aV00558tt.com
p160
aV00558uu.com
p161
aV00558vv.com
p162
aV00558ww.com
p163
aV00558xx.com
p164
aV00558yy.com
p165
aV00558zz.com
p166
aV00660.com
p167
aV00661277.com
p168
aV00661524.com
p169
aV0066hg.com
p170
aV007005.com
p171
aV00708.com
p172
aV0075522.com
p173
aV0075523.com
p174
aV00755a.com
p175
aV00755b.com
p176
aV00755c.com
p177
aV00755d.com
p178
aV00755e.com
p179
aV00771524.com
p180
aV0078945.com
p181
aV0080.com
p182
aV00881524.com
p183
aV00899a.com
p184
aV00899b.com
p185
aV00899c.com
p186
aV00899f.com
p187
aV00899h.com
p188
aV00899i.com
p189
aV00899j.com
p190
aV00899k.com
p191
aV00899m.com
p192
aV00899o.com
p193
aV00899p.com
p194
aV00899q.com
p195
aV00899s.com
p196
aV00899t.com
p197
aV00991277.com
p198
aV00991524.com
p199
aV3ok88.com
p200
aV40002.com
p201
aV40002a.com
p202
aV40002b.com
p203
aV40002c.com
p204
aV40002d.com
p205
aV40002e.com
p206
aV40002f.com
p207
aV40002g.com
p208
aV40002h.com
p209
aV40002i.com
p210
aV40002j.com
p211
aV40002l.com
p212
aV40002m.com
p213
aV40002n.com
p214
aV40002o.com
p215
aV40002p.com
p216
aV40002q.com
p217
aV40002r.com
p218
aV40002s.com
p219
aV40002t.com
p220
aV40002u.com
p221
aV40002v.com
p222
aV40002w.com
p223
aV40002x.com
p224
aV40002y.com
p225
aV40002z.com
p226
aV40008455.com
p227
aV402997.com
p228
aV4036e.com
p229
aV4036g.com
p230
aV4036h.com
p231
aV4036i.com
p232
aV4036j.com
p233
aV4036l.com
p234
aV4036m.com
p235
aV4036n.com
p236
aV4036o.com
p237
aV4036p.com
p238
aV4036q.com
p239
aV4036r.com
p240
aV4036s.com
p241
aV4036t.com
p242
aV4036u.com
p243
aV4036w.com
p244
aV4036x.com
p245
aV4036y.com
p246
aV4036z.com
p247
aV4040iii.com
p248
aV4040nnn.com
p249
aV4040zzz.com
p250
aV40686a.com
p251
aV40686b.com
p252
aV40686c.com
p253
aV40686f.com
p254
aV40686g.com
p255
aV4107000.com
p256
aV4107111.com
p257
aV4107222.com
p258
aV4107444.com
p259
aV4107666.com
p260
aV4129i.com
p261
aV4136a.com
p262
aV4136b.com
p263
aV4136c.com
p264
aV4136d.com
p265
aV4136e.com
p266
aV4136f.com
p267
aV4136g.com
p268
aV4136i.com
p269
aV4136j.com
p270
aV4136k.com
p271
aV4136l.com
p272
aV4136m.com
p273
aV4136n.com
p274
aV4136o.com
p275
aV4136p.com
p276
aV4136q.com
p277
aV4136r.com
p278
aV4136s.com
p279
aV4136u.com
p280
aV4136v.com
p281
aV4136w.com
p282
aV4136x.com
p283
aV4136z.com
p284
aV4148.com
p285
aV4148bb.com
p286
aV4148cc.com
p287
aV4148dd.com
p288
aV4148ee.com
p289
aV4148ff.com
p290
aV4148gg.com
p291
aV4148hh.com
p292
aV4148ii.com
p293
aV4148jj.com
p294
aV4148ll.com
p295
aV4148mm.com
p296
aV4148nn.com
p297
aV4148oo.com
p298
aV4148pp.com
p299
aV4148qq.com
p300
aV4148rr.com
p301
aV4148ss.com
p302
aV4148tt.com
p303
aV4148uu.com
p304
aV4148vv.com
p305
aV4148ww.com
p306
aV4148xx.com
p307
aV4148yy.com
p308
aV4148zz.com
p309
aV4165.com
p310
aV4165y.com
p311
aV4165z.com
p312
aV41669a.com
p313
aV4180b.com
p314
aV4180d.com
p315
aV4180e.com
p316
aV4180g.com
p317
aV4180h.com
p318
aV4180l.com
p319
aV4180n.com
p320
aV4180o.com
p321
aV4180u.com
p322
aV4180v.com
p323
aV4180w.com
p324
aV4180x.com
p325
aV4180y.com
p326
aV418587.com
p327
aV4212g.com
p328
aV4212h.com
p329
aV4212i.com
p330
aV4212j.com
p331
aV4212k.com
p332
aV4212l.com
p333
aV4212m.com
p334
aV4212n.com
p335
aV4212o.com
p336
aV4212p.com
p337
aV4212q.com
p338
aV4212r.com
p339
aV4212s.com
p340
aV4212t.com
p341
aV4212u.com
p342
aV4212w.com
p343
aV4212x.com
p344
aV4212y.com
p345
aV4212z.com
p346
aV4231a.com
p347
aV4231b.com
p348
aV4231c.com
p349
aV4231d.com
p350
aV4233003.com
p351
aV4233008.com
p352
aV4288aa.com
p353
aV4288bb.com
p354
aV4288cc.com
p355
aV4288j.com
p356
aV4288jj.com
p357
aV4288k.com
p358
aV4288l.com
p359
aV4288ll.com
p360
aV4288mm.com
p361
aV4288nn.com
p362
aV4288o.com
p363
aV4288oo.com
p364
aV4288p.com
p365
aV4288pp.com
p366
aV4288q.com
p367
aV4288qq.com
p368
aV4288rr.com
p369
aV4288ss.com
p370
aV4288t.com
p371
aV4288tt.com
p372
aV4288u.com
p373
aV4288uu.com
p374
aV4288v.com
p375
aV4288vv.com
p376
aV4288w.com
p377
aV4288x.com
p378
aV4288xx.com
p379
aV4288y.com
p380
aV4288yy.com
p381
aV4288zz.com
p382
aV4318k.com
p383
aV4318l.com
p384
aV4318m.com
p385
aV4318n.com
p386
aV4318o.com
p387
aV4318q.com
p388
aV4318r.com
p389
aV4318s.com
p390
aV4318t.com
p391
aV4318u.com
p392
aV4318v.com
p393
aV4318w.com
p394
aV4318x.com
p395
aV4318y.com
p396
aV4318z.com
p397
aV4346a.com
p398
aV44.am
p399
aV44001524.com
p400
aV4400524.com
p401
aV4408ff.com
p402
aV4408gg.com
p403
aV4408hh.com
p404
aV4408ii.com
p405
aV4408jj.com
p406
aV4408kk.com
p407
aV4408nn.com
p408
aV4408oo.com
p409
aV4408pp.com
p410
aV4408ss.com
p411
aV4408ww.com
p412
aV44221524.com
p413
aV44224001.com
p414
aV44330040.com
p415
aV44331524.com
p416
aV443456.com
p417
aV4443610.com
p418
aV4443801.com
p419
aV44442rrr.com
p420
aV44442sss.com
p421
aV44442uuu.com
p422
aV44442vvv.com
p423
aV44443801.com
p424
aV4447175.com
p425
aV44551524.com
p426
aV4457g.com
p427
aV4457h.com
p428
aV4457i.com
p429
aV4457k.com
p430
aV4457l.com
p431
aV4457m.com
p432
aV4457n.com
p433
aV4457o.com
p434
aV4457p.com
p435
aV4457q.com
p436
aV4457r.com
p437
aV4457s.com
p438
aV4457u.com
p439
aV4457v.com
p440
aV4457x.com
p441
aV4457y.com
p442
aV44661524.com
p443
aV4466524.com
p444
aV44699.com
p445
aV44771524.com
p446
aV44883801.com
p447
aV44884001.com
p448
aV44991524.com
p449
aV4499524.com
p450
aV4508bb.com
p451
aV4508dd.com
p452
aV4508ee.com
p453
aV4508ff.com
p454
aV4508hh.com
p455
aV4508ii.com
p456
aV4508jj.com
p457
aV4508kk.com
p458
aV4508ll.com
p459
aV4508mm.com
p460
aV4508nn.com
p461
aV4508oo.com
p462
aV4508pp.com
p463
aV4508qq.com
p464
aV4508rr.com
p465
aV4508ss.com
p466
aV4508tt.com
p467
aV4508uu.com
p468
aV4508vv.com
p469
aV4508ww.com
p470
aV4508xx.com
p471
aV4508zz.com
p472
aV4518.com
p473
aV4518k.com
p474
aV4518l.com
p475
aV4518m.com
p476
aV4518n.com
p477
aV4518p.com
p478
aV4518q.com
p479
aV4518r.com
p480
aV4518s.com
p481
aV4518t.com
p482
aV4518u.com
p483
aV4518v.com
p484
aV4518w.com
p485
aV4518y.com
p486
aV4546001.com
p487
aV4546005.com
p488
aV4563657.com
p489
aV45679b.com
p490
aV45679c.com
p491
aV45679d.com
p492
aV45679k.com
p493
aV45679q.com
p494
aV45679v.com
p495
aV45679w.com
p496
aV4568122.com
p497
aV4568133.com
p498
aV4568144.com
p499
aV4568155.com
p500
aV4568166.com
p501
aV4568177.com
p502
aV4568188.com
p503
aV4568199.com
p504
aV456pujing.com
p505
aV4600.com
p506
aV4630h.com
p507
aV4630i.com
p508
aV4630j.com
p509
aV4630k.com
p510
aV4630m.com
p511
aV4630n.com
p512
aV4630o.com
p513
aV4630p.com
p514
aV4630q.com
p515
aV4630r.com
p516
aV4630s.com
p517
aV4630t.com
p518
aV4630u.com
p519
aV4630v.com
p520
aV4630w.com
p521
aV4630x.com
p522
aV4630y.com
p523
aV4668099.com
p524
aV468860.com
p525
aV4727.cc
p526
aV4727d.com
p527
aV4727e.com
p528
aV4727f.com
p529
aV4727g.com
p530
aV4727h.com
p531
aV4727i.com
p532
aV4727l.com
p533
aV4727m.com
p534
aV4727n.com
p535
aV4727p.com
p536
aV4727q.com
p537
aV4727r.com
p538
aV4727s.com
p539
aV4727t.com
p540
aV4727u.com
p541
aV4727v.com
p542
aV4727w.com
p543
aV4727x.com
p544
aV4727y.com
p545
aV4727z.com
p546
aV4776.com
p547
aV4809o.com
p548
aV48299.cc
p549
aV4852a.com
p550
aV4852b.com
p551
aV4852c.com
p552
aV4852d.com
p553
aV4852e.com
p554
aV4852f.com
p555
aV4852g.com
p556
aV4852h.com
p557
aV4852i.com
p558
aV4852j.com
p559
aV4852k.com
p560
aV4852l.com
p561
aV4852m.com
p562
aV4852o.com
p563
aV4852p.com
p564
aV4852q.com
p565
aV4852r.com
p566
aV4852s.com
p567
aV4852t.com
p568
aV4852u.com
p569
aV4852v.com
p570
aV4852w.com
p571
aV4852x.com
p572
aV4852y.com
p573
aV4852z.com
p574
aV4856000.com
p575
aV4856001.com
p576
aV4856002.com
p577
aV4856003.com
p578
aV4856004.com
p579
aV4856005.com
p580
aV4856006.com
p581
aV4856007.com
p582
aV4856008.com
p583
aV4856009.com
p584
aV4856a.com
p585
aV4856c.com
p586
aV4856d.com
p587
aV4856e.com
p588
aV4856f.com
p589
aV486.cc
p590
aV48789.cc
p591
aV495b.cc
p592
aV495c.cc
p593
aV495d.cc
p594
aV495e.cc
p595
aV495f.cc
p596
aV495g.cc
p597
aV495h.cc
p598
aV495i.cc
p599
aV495k.cc
p600
aV495l.cc
p601
aV495m.cc
p602
aV495n.cc
p603
aV495o.cc
p604
aV495p.cc
p605
aV495q.cc
p606
aV495r.cc
p607
aV495s.cc
p608
aV495t.cc
p609
aV495u.cc
p610
aV495v.cc
p611
aV495w.cc
p612
aV495x.cc
p613
aV4ok88.com
p614
aV5002.cc
p615
aV5002c.com
p616
aV5003.am
p617
aV5003.cc
p618
aV5004.am
p619
aV500w2.com
p620
aV500w3.com
p621
aV500w4.com
p622
aV500w5.com
p623
aV500w7.com
p624
aV500w8.com
p625
aV5027aa.com
p626
aV5027bb.com
p627
aV5027cc.com
p628
aV5027dd.com
p629
aV5027ee.com
p630
aV5027ff.com
p631
aV5027gg.com
p632
aV5027hh.com
p633
aV5027ii.com
p634
aV5027jj.com
p635
aV5027kk.com
p636
aV5027ll.com
p637
aV5027mm.com
p638
aV5027nn.com
p639
aV5027oo.com
p640
aV5027pp.com
p641
aV5027qq.com
p642
aV5027rr.com
p643
aV5027ss.com
p644
aV5027tt.com
p645
aV5027uu.com
p646
aV5027vv.com
p647
aV5027ww.com
p648
aV5027xx.com
p649
aV5027yy.com
p650
aV5027zz.com
p651
aV50588aa.com
p652
aV50588bb.com
p653
aV50588cc.com
p654
aV50588dd.com
p655
aV50588ee.com
p656
aV50588ff.com
p657
aV50588gg.com
p658
aV50588hh.com
p659
aV50588ii.com
p660
aV50588jj.com
p661
aV50588kk.com
p662
aV50588ll.com
p663
aV50588mm.com
p664
aV50588nn.com
p665
aV50588oo.com
p666
aV50588pp.com
p667
aV50588qq.com
p668
aV50588rr.com
p669
aV50588ss.com
p670
aV50588tt.com
p671
aV50588uu.com
p672
aV50588vv.com
p673
aV50588ww.com
p674
aV50588xx.com
p675
aV50588zz.com
p676
aV50730f.com
p677
aV5099bb.com
p678
aV5099dd.com
p679
aV5099gg.com
p680
aV5099hh.com
p681
aV5099ii.com
p682
aV5099jj.com
p683
aV5099rr.com
p684
aV5099tt.com
p685
aV5099zz.com
p686
aV5101aa.com
p687
aV5101bb.com
p688
aV51118455.com
p689
aV511811.com
p690
aV511811a.com
p691
aV511811c.com
p692
aV511811d.com
p693
aV511811e.com
p694
aV511811f.com
p695
aV511811g.com
p696
aV5214a.com
p697
aV5214c.com
p698
aV5214d.com
p699
aV5214e.com
p700
aV5214f.com
p701
aV5214g.com
p702
aV5214h.com
p703
aV5214q.com
p704
aV5214r.com
p705
aV5214s.com
p706
aV5214t.com
p707
aV5214u.com
p708
aV5214v.com
p709
aV5214w.com
p710
aV5214x.com
p711
aV5214y.com
p712
aV5214z.com
p713
aV5224k.com
p714
aV5254w.com
p715
aV5296a.com
p716
aV5296f.com
p717
aV5296gg.com
p718
aV5296h.com
p719
aV5296hh.com
p720
aV5296z.com
p721
aV5296zz.com
p722
aV53358a.com
p723
aV53358c.com
p724
aV53358d.com
p725
aV53358f.com
p726
aV53358g.com
p727
aV53358h.com
p728
aV53358i.com
p729
aV53358k.com
p730
aV53358l.com
p731
aV53358m.com
p732
aV53358o.com
p733
aV53358p.com
p734
aV53358q.com
p735
aV53358r.com
p736
aV53358s.com
p737
aV53358t.com
p738
aV53358u.com
p739
aV53358v.com
p740
aV53358w.com
p741
aV53358x.com
p742
aV53358y.com
p743
aV53358z.com
p744
aV5410s.com
p745
aV54111.com
p746
aV542365.cc
p747
aV5436g.com
p748
aV5436h.com
p749
aV5436i.com
p750
aV5436j.com
p751
aV544648.com
p752
aV5473.com
p753
aV54888aa.com
p754
aV54888bb.com
p755
aV54888cc.com
p756
aV54888ee.com
p757
aV54888gg.com
p758
aV54888hh.com
p759
aV54888ii.com
p760
aV54888jj.com
p761
aV54888kk.com
p762
aV54888ll.com
p763
aV54888mm.com
p764
aV54888nn.com
p765
aV54888oo.com
p766
aV54888pp.com
p767
aV54888tt.com
p768
aV54888vv.com
p769
aV54888ww.com
p770
aV54888xx.com
p771
aV54888yy.com
p772
aV5489.com
p773
aV55001524.com
p774
aV55111524.com
p775
aV5511524.com
p776
aV55221524.com
p777
aV5522524.com
p778
aV553066.com
p779
aV55331524.com
p780
aV5533524.com
p781
aV553643.com
p782
aV55441524.com
p783
aV5547.com
p784
aV55519a.com
p785
aV55519c.com
p786
aV55523a.com
p787
aV55523b.com
p788
aV55523d.com
p789
aV55523e.com
p790
aV55523f.com
p791
aV55523g.com
p792
aV55523h.com
p793
aV55523i.com
p794
aV55523j.com
p795
aV55523k.com
p796
aV55523l.com
p797
aV55523m.com
p798
aV55523n.com
p799
aV55523o.com
p800
aV55523p.com
p801
aV55523q.com
p802
aV55523r.com
p803
aV55523s.com
p804
aV55523t.com
p805
aV55523u.com
p806
aV55523v.com
p807
aV55523w.com
p808
aV55523x.com
p809
aV55523y.com
p810
aV55523z.com
p811
aV55534a.com
p812
aV55534b.com
p813
aV55534d.com
p814
aV55534e.com
p815
aV55534f.com
p816
aV55534y.com
p817
aV5554107.com
p818
aV55545b.com
p819
aV55545h.com
p820
aV55545i.com
p821
aV55545j.com
p822
aV55545n.com
p823
aV55545q.com
p824
aV55545x.com
p825
aV55545y.com
p826
aV55554066.com
p827
aV5557175.com
p828
aV555838.com
p829
aV55615vip.com
p830
aV5566524.com
p831
aV55771524.com
p832
aV5578945.com
p833
aV55881524.com
p834
aV5595.com
p835
aV5595a.com
p836
aV5595b.com
p837
aV5595d.com
p838
aV5595e.com
p839
aV5595f.com
p840
aV5595h.com
p841
aV5595i.com
p842
aV5595j.com
p843
aV5595k.com
p844
aV5595l.com
p845
aV5595m.com
p846
aV5595n.com
p847
aV5595p.com
p848
aV5595r.com
p849
aV5595s.com
p850
aV5595t.com
p851
aV5595u.com
p852
aV5595v.com
p853
aV5595y.com
p854
aV55990a.com
p855
aV55990c.com
p856
aV55990d.com
p857
aV55990e.com
p858
aV55990f.com
p859
aV55990g.com
p860
aV55990h.com
p861
aV55991524.com
p862
aV5599pj.com
p863
aV55hck.com
p864
aV5607.cc
p865
aV5614.com
p866
aV5614m.com
p867
aV561js.com
p868
aV562js.com
p869
aV563js.com
p870
aV56561.cc
p871
aV56561a.com
p872
aV56561b.com
p873
aV56561c.com
p874
aV56561d.com
p875
aV56561e.com
p876
aV56561f.com
p877
aV56561g.com
p878
aV56561h.com
p879
aV56561j.com
p880
aV56561k.com
p881
aV56561m.com
p882
aV56561p.com
p883
aV56561t.com
p884
aV56561v.com
p885
aV56561w.com
p886
aV56561y.com
p887
aV56561z.com
p888
aV565js.com
p889
aV56668455.com
p890
aV566js.com
p891
aV5673657.com
p892
aV567pujing.com
p893
aV5680.com
p894
aV5778099.com
p895
aV584464.com
p896
aV585.cc
p897
aV58587777.cc
p898
aV58589999.cc
p899
aVbb00080.com
p900
aVbb00668.com
p901
aVbb44442.com
p902
aVbb6534.com
p903
aVbb9497.com
p904
aVbet-5678.com
p905
aVbet36500100.com
p906
aVbet36500111.com
p907
aVbet36500220.com
p908
aVbet36500444.com
p909
aVbet36500666.com
p910
aVbet36500888.com
p911
aVbet365jt.com
p912
aVbet573.com
p913
aVbm502.com
p914
aVbm504.com
p915
aVbm505.com
p916
aVbm506.com
p917
aVbm508.com
p918
aVbm509.com
p919
aVbm7777.com
p920
aVbm777888.com
p921
aVbm7779.com
p922
aVf4042.com
p923
aVf553066.com
p924
aVf55523.com
p925
aVf6011.com
p926
aVf6261.com
p927
aVf65056.com
p928
aVf7191.com
p929
aVf7378.com
p930
aVf8309.com
p931
aVf93488.com
p932
aVff00080.com
p933
aVff23488.com
p934
aVff44442.com
p935
aVff5486.com
p936
aVg04889.com
p937
aVg2490.com
p938
aVg35151.com
p939
aVg4042.com
p940
aVg553066.com
p941
aVg55523.com
p942
aVg6261.com
p943
aVg7191.com
p944
aVg7359.com
p945
aVg7378.com
p946
aVg7439.com
p947
aVg779911.com
p948
aVg8309.com
p949
aVg99138.com
p950
aVgg00080.com
p951
aVgg00668.com
p952
aVgg44442.com
p953
aVgg5486.com
p954
aVgg7966.com
p955
aVh1386.com
p956
aVh2490.com
p957
aVh35151.com
p958
aVh4042.com
p959
aVh44.am
p960
aVh553066.com
p961
aVh55523.com
p962
aVh6261.com
p963
aVh65056.com
p964
aVh7191.com
p965
aVh7378.com
p966
aVh7439.com
p967
aVh779911.com
p968
aVh8309.com
p969
aVh93488.com
p970
aVh99138.com
p971
aVh99345.am
p972
aVhd4034.com
p973
aVhg00048.com
p974
aVhg07111.org
p975
aVhg71666.com
p976
aVhg71888.com
p977
aVhg880880.com
p978
aVhg91999c.com
p979
aVhg91999d.com
p980
aVhg91999e.com
p981
aVhg91999f.com
p982
aVhg91999g.com
p983
aVhg91999h.com
p984
aVhg91999i.com
p985
aVhg91999j.com
p986
aVhg91999k.com
p987
aVhg91999l.com
p988
aVhg91999n.com
p989
aVhg91999o.com
p990
aVhg91999p.com
p991
aVhg91999q.com
p992
aVhg91999r.com
p993
aVhg91999s.com
p994
aVhg91999t.com
p995
aVhg91999u.com
p996
aVhg91999w.com
p997
aVhg91999y.com
p998
aVhg9497.net
p999
aVhg9497.org
p1000
aVhg9497.vip
p1001
aVhh00668.com
p1002
aVhh44442.com
p1003
aVhh5486.com
p1004
aVhh6534.com
p1005
aVhh6728.com
p1006
aVhh9497.com
p1007
aVhjhj.com
p1008
aVhxcp88.com
p1009
aVi04889.com
p1010
aVi0778.com
p1011
aVi35151.com
p1012
aVi41669.com
p1013
aVi6261.com
p1014
aVi7359.com
p1015
aVi779911.com
p1016
aVi8309.com
p1017
aVi93488.com
p1018
aVi99345.am
p1019
aVii44442.com
p1020
aVii5486.com
p1021
aVii6534.com
p1022
aVii6728.com
p1023
aViii801.com
p1024
aVj04889.com
p1025
aVj1386.com
p1026
aVj17200.com
p1027
aVj2490.com
p1028
aVj35151.com
p1029
aVj4042.com
p1030
aVj4116.com
p1031
aVj5383.com
p1032
aVj5900.com
p1033
aVj6261.com
p1034
aVj65056.com
p1035
aVj7191.com
p1036
aVj779911.com
p1037
aVj8309.com
p1038
aVj93488.com
p1039
aVj99345.am
p1040
aVjing55.com
p1041
aVjinsha6668.com
p1042
aVjj23488.com
p1043
aVjj44442.com
p1044
aVjj5486.com
p1045
aVjj6534.com
p1046
aVjj6728.com
p1047
aVjj8828.com
p1048
aVjjj801.com
p1049
aVjs00025.com
p1050
aVjs00026.com
p1051
aVjs00027.com
p1052
aVjs00035.com
p1053
aVjs00037.com
p1054
aVjs00086.com
p1055
aVjs00095.com
p1056
aVjs0048.com
p1057
aVjs10123.com
p1058
aVjs3034.com
p1059
aVjs32188.com
p1060
aVjs33001.com
p1061
aVjs33002.com
p1062
aVjs33003.com
p1063
aVjs33004.com
p1064
aVjs33005.com
p1065
aVjs333113.com
p1066
aVjs333114.com
p1067
aVjs333115.com
p1068
aVjs333116.com
p1069
aVjs333117.com
p1070
aVjs333118.com
p1071
aVjs33888.com
p1072
aVjs36123.com
p1073
aVjs40123.com
p1074
aVjs46123.com
p1075
aVjs5678.com
p1076
aVjs6969.com
p1077
aVjs77993.com
p1078
aVjs77996.com
p1079
aVjs88109.com
p1080
aVjs9996.com
p1081
aVjs9997.com
p1082
aVjsc066.com
p1083
aVjsc2016.com
p1084
aVjsc2018.com
p1085
aVjsc2019.com
p1086
aVjsc2020.com
p1087
aVjsdc.hk
p1088
aVjsdc.tk
p1089
aVjsvip-1.com
p1090
aVjsvip-2.com
p1091
aVjsvip-4.com
p1092
aVjsvip-5.com
p1093
aVjsvip-6.com
p1094
aVjsvip-7.com
p1095
aVjsvip-8.com
p1096
aVjsvip-9.com
p1097
aVjsw0.com
p1098
aVk0088hg.com
p1099
aVk04889.com
p1100
aVk0811.com
p1101
aVk3559.com
p1102
aVk553066.com
p1103
aVk55523.com
p1104
aVk6011.com
p1105
aVk6261.com
p1106
aVk65056.com
p1107
aVk7378.com
p1108
aVk8309.com
p1109
aVk9234.com
p1110
aVk93488.com
p1111
aVk99345.am
p1112
aVkaisa0.com
p1113
aVkaisa1.com
p1114
aVkk00080.com
p1115
aVkk23488.com
p1116
aVkk3709.com
p1117
aVkk44442.com
p1118
aVkk5486.com
p1119
aVkk6534.com
p1120
aVkk6728.com
p1121
aVkk8zz.com
p1122
aVkkk801.com
p1123
aVks0777.com
p1124
aVks7222.com
p1125
aVl0088hg.com
p1126
aVl04889.com
p1127
aVl086bb.com
p1128
aVl086cc.com
p1129
aVl086dd.com
p1130
aVl086ee.com
p1131
aVl086ff.com
p1132
aVl086gg.com
p1133
aVl086hh.com
p1134
aVl086ii.com
p1135
aVl086jj.com
p1136
aVl086tt.com
p1137
aVl2490.com
p1138
aVl35151.com
p1139
aVl5383.com
p1140
aVl55523.com
p1141
aVl65056.com
p1142
aVl7378.com
p1143
aVl779911.com
p1144
aVl8309.com
p1145
aVl88898.com
p1146
aVl93488.com
p1147
aVl99345.am
p1148
aVleboxpj.com
p1149
aVleboxpj00.com
p1150
aVleboxpj000.com
p1151
aVleboxpj1.com
p1152
aVleboxpj11.com
p1153
aVleboxpj2.com
p1154
aVleboxpj22.com
p1155
aVleboxpj3.com
p1156
aVleboxpj4.com
p1157
aVleboxpj44.com
p1158
aVleboxpj55.com
p1159
aVleboxpj66.com
p1160
aVleboxpj666.com
p1161
aVleboxpj77.com
p1162
aVleboxpj88.com
p1163
aVlhg1122.com
p1164
aVlhg1166.com
p1165
aVlhg1177.com
p1166
aVlhg1199.com
p1167
aVlhg555.com
p1168
aVlhg5555.com
p1169
aVlhg888.com
p1170
aVll5486.com
p1171
aVll6534.com
p1172
aVll6728.com
p1173
aVls661.com
p1174
aVls992.com
p1175
aVls993.com
p1176
aVm00228.com
p1177
aVm04889.com
p1178
aVm2490.com
p1179
aVm35151.com
p1180
aVm4042.com
p1181
aVm5383.com
p1182
aVm553066.com
p1183
aVm55523.com
p1184
aVm6199.com
p1185
aVm7191.com
p1186
aVm7321.com
p1187
aVm779911.com
p1188
aVm7966.com
p1189
aVm8309.com
p1190
aVm93488.com
p1191
aVm99345.am
p1192
aVmgm11266.com
p1193
aVmgm11288.com
p1194
aVmgm11366.com
p1195
aVmgm11466.com
p1196
aVmgm11566.com
p1197
aVmgm11766.com
p1198
aVmgm11966.com
p1199
aVmgm1301.com
p1200
aVmgm1302.com
p1201
aVmgm1303.com
p1202
aVmgm1304.com
p1203
aVmgm177.com
p1204
aVmgm299.com
p1205
aVmgm377.com
p1206
aVmgm57.com
p1207
aVmgm599.com
p1208
aVmgm65.com
p1209
aVmgm67.com
p1210
aVmgm677.com
p1211
aVmgm699.com
p1212
aVmgm799.com
p1213
aVmgm87.com
p1214
aVmgm97.com
p1215
aVmm00080.com
p1216
aVmm44442.com
p1217
aVmm5486.com
p1218
aVmm6534.com
p1219
aVn04889.com
p1220
aVn2490.com
p1221
aVn35151.com
p1222
aVn4042.com
p1223
aVn55523.com
p1224
aVn7191.com
p1225
aVn7378.com
p1226
aVn779911.com
p1227
aVn8309.com
p1228
aVn93488.com
p1229
aVn97679.com
p1230
aVn99345.am
p1231
aVnb9.com
p1232
aVnn00080.com
p1233
aVnn5486.com
p1234
aVnn6534.com
p1235
aVo04889.com
p1236
aVo93488.com
p1237
aVo97679.com
p1238
aVo99138.com
p1239
aVok42333.com
p1240
aVoo00080.com
p1241
aVoo44442.com
p1242
aVoo5486.com
p1243
aVp04889.com
p1244
aVp1.cc
p1245
aVp11111.cc
p1246
aVp553066.com
p1247
aVp5903.com
p1248
aVp5904.com
p1249
aVp5905.com
p1250
aVp5906.com
p1251
aVp5907.com
p1252
aVp6199.com
p1253
aVp7191.com
p1254
aVp7378.com
p1255
aVp779911.com
p1256
aVp9602.com
p1257
aVp9603.com
p1258
aVp9605.com
p1259
aVp9607.com
p1260
aVp9608.com
p1261
aVp9609.com
p1262
aVp97679.com
p1263
aVp99138.com
p1264
aVp99345.am
p1265
aVpj11171.com
p1266
aVpj11172.com
p1267
aVpj11173.com
p1268
aVpj11175.com
p1269
aVpj11176.com
p1270
aVpj11178.com
p1271
aVpj11179.com
p1272
aVpj19333.com
p1273
aVpj21b.com
p1274
aVpj21c.com
p1275
aVpj21d.com
p1276
aVpj21e.com
p1277
aVpj21f.com
p1278
aVpj21g.com
p1279
aVpj21k.com
p1280
aVpj520.com
p1281
aVpj59591.com
p1282
aVpj59592.com
p1283
aVpj59594.com
p1284
aVpj6568.com
p1285
aVpj6666666.com
p1286
aVpj66898.com
p1287
aVpj6858.com
p1288
aVpj7757.com
p1289
aVpj8085.com
p1290
aVpj8086.com
p1291
aVpj8280.com
p1292
aVpj9077.com
p1293
aVpj98911.com
p1294
aVpj98912.com
p1295
aVpj98913.com
p1296
aVpj98914.com
p1297
aVpjgj005.com
p1298
aVpjgj007.com
p1299
aVpjgj008.com
p1300
aVpjjtzy.com
p1301
aVpp44442.com
p1302
aVpp5486.com
p1303
aVpp6534.com
p1304
aVq04889.com
p1305
aVq35151.com
p1306
aVq553066.com
p1307
aVq55523.com
p1308
aVq65056.com
p1309
aVq7378.com
p1310
aVq779911.com
p1311
aVq8309.com
p1312
aVq97679.com
p1313
aVq99138.com
p1314
aVq99345.am
p1315
aVqq44442.com
p1316
aVqq5486.com
p1317
aVqq8828.com
p1318
aVr00228.com
p1319
aVr0088hg.com
p1320
aVr04889.com
p1321
aVr35151.com
p1322
aVr4042.com
p1323
aVr55523.com
p1324
aVr65056.com
p1325
aVr7191.com
p1326
aVr7378.com
p1327
aVr779911.com
p1328
aVr8309.com
p1329
aVr99138.com
p1330
aVrr44442.com
p1331
aVrr5486.com
p1332
aVrr6534.com
p1333
aVrrr2007.com
p1334
aVs0088hg.com
p1335
aVs04889.com
p1336
aVs35151.com
p1337
aVs388.com
p1338
aVs553066.com
p1339
aVs55523.com
p1340
aVs6199.com
p1341
aVs65056.com
p1342
aVs66123.com
p1343
aVs7191.com
p1344
aVs72.la
p1345
aVs7378.com
p1346
aVs779911.com
p1347
aVs97679.com
p1348
aVsb7877.com
p1349
aVshalong07.com
p1350
aVshalong08.com
p1351
aVshalong09.com
p1352
aVshalongguoji.biz
p1353
aVshalongguoji.cc
p1354
aVshalongguoji.com
p1355
aVshalongguoji.tv
p1356
aVsjg111.com
p1357
aVss23488.com
p1358
aVss44442.com
p1359
aVss5486.com
p1360
aVss6534.com
p1361
aVsz2333.com
p1362
aVsz4455.com
p1363
aVsz7755.com
p1364
aVt00228.com
p1365
aVt0088hg.com
p1366
aVt04889.com
p1367
aVt0811.com
p1368
aVt3285.com
p1369
aVt35151.com
p1370
aVt553066.com
p1371
aVt55523.com
p1372
aVt6011.com
p1373
aVt6199.com
p1374
aVt65056.com
p1375
aVt7191.com
p1376
aVt7378.com
p1377
aVt779911.com
p1378
aVt8.cc
p1379
aVt8309.com
p1380
aVt99345.am
p1381
aVtt23488.com
p1382
aVtt5486.com
p1383
aVtxdc.com
p1384
aVu00228.com
p1385
aVu0088hg.com
p1386
aVu04889.com
p1387
aVu2490.com
p1388
aVu35151.com
p1389
aVu4042.com
p1390
aVu55523.com
p1391
aVu5622.com
p1392
aVu7191.com
p1393
aVu7378.com
p1394
aVu779911.com
p1395
aVu8309.com
p1396
aVu97679.com
p1397
aVu99345.am
p1398
aVuu23488.com
p1399
aVuu44442.com
p1400
aVuu6534.com
p1401
aVuu6728.com
p1402
aVv001111.com
p1403
aVv00228.com
p1404
aVv0088hg.com
p1405
aVv04889.com
p1406
aVv0811.com
p1407
aVv1082.com
p1408
aVv35151.com
p1409
aVv36.com
p1410
aVv41669.com
p1411
aVv4420.com
p1412
aVv4421.com
p1413
aVv4423.com
p1414
aVv4424.com
p1415
aVv55523.com
p1416
aVv62.com
p1417
aVv6369.com
p1418
aVv7191.com
p1419
aVv7378.com
p1420
aVv77r.com
p1421
aVv82.com
p1422
aVv8309.com
p1423
aVv93333.com
p1424
aVv93444.com
p1425
aVv98301.com
p1426
aVv98302.com
p1427
aVv98304.com
p1428
aVv98305.com
p1429
aVv98306.com
p1430
aVv98309.com
p1431
aVv99138.com
p1432
aVv99345.am
p1433
aVvip27666.com
p1434
aVvip3643.net
p1435
aVvip530.cc
p1436
aVvip585.cc
p1437
aVvip7579.com
p1438
aVvip77606.com
p1439
aVvip9506.com
p1440
aVvns08877.com
p1441
aVvns44699.com
p1442
aVvns6031.com
p1443
aVvns6041.com
p1444
aVvns6051.com
p1445
aVvns6071.com
p1446
aVvns776.com
p1447
aVvns8458.com
p1448
aVvnsr.com
p1449
aVvnsr0613.com
p1450
aVvnswt.com
p1451
aVvv23488.com
p1452
aVvv44442.com
p1453
aVvv5486.com
p1454
aVvv6534.com
p1455
aVvv6728.com
p1456
aVw0088hg.com
p1457
aVw04889.com
p1458
aVw26.com
p1459
aVw35151.com
p1460
aVw55523.com
p1461
aVw6369.com
p1462
aVw65056.com
p1463
aVw7191.com
p1464
aVw7378.com
p1465
aVw779911.com
p1466
aVw8309.com
p1467
aVw8867.com
p1468
aVw99138.com
p1469
aVw99345.am
p1470
aVwbwcpw.com
p1471
aVweide111.net
p1472
aVweide20.net
p1473
aVweide222.net
p1474
aVweide333.net
p1475
aVweide444.net
p1476
aVweide555.net
p1477
aVweide666.net
p1478
aVweide777.net
p1479
aVweide999.net
p1480
aVwlxe01.com
p1481
aVwlxe02.com
p1482
aVwlxe03.com
p1483
aVwlxe04.com
p1484
aVwlxe05.com
p1485
aVwlxe06.com
p1486
aVwlxe07.com
p1487
aVwlxe08.com
p1488
aVwn03.com
p1489
aVwn05.com
p1490
aVwn09.com
p1491
aVwn57.com
p1492
aVwns020.com
p1493
aVwnsbet.com
p1494
aVwnsr5519.com
p1495
aVwsdc.co
p1496
aVwubaiwancaipiao.com
p1497
aVww44442.com
p1498
aVww5486.com
p1499
aVww6534.com
p1500
aVww7720.com
p1501
aVww7966.com
p1502
aVwww-1366a.com
p1503
aVwww-1366c.com
p1504
aVx00228.com
p1505
aVx0088hg.com
p1506
aVx04889.com
p1507
aVx3222.com
p1508
aVx35151.com
p1509
aVx41669.com
p1510
aVx44.am
p1511
aVx55523.com
p1512
aVx65056.com
p1513
aVx7191.com
p1514
aVx7378.com
p1515
aVx776.com
p1516
aVx7764.com
p1517
aVx779911.com
p1518
aVx8309.com
p1519
aVx93488.com
p1520
aVx99138.com
p1521
aVx99345.am
p1522
aVxam188.com
p1523
aVxam288.com
p1524
aVxh033.com
p1525
aVxh8708.com
p1526
aVxh8713.com
p1527
aVxh8714.com
p1528
aVxh8715.com
p1529
aVxh8717.com
p1530
aVxh8718.com
p1531
aVxh8719.com
p1532
aVxh8720.com
p1533
aVxin8882.net
p1534
aVxin8883.net
p1535
aVxin8884.net
p1536
aVxin8889.net
p1537
aVxjs11666.com
p1538
aVxjs22666.com
p1539
aVxjs315.com
p1540
aVxjs33666.com
p1541
aVxjs363.com
p1542
aVxjs55666.com
p1543
aVxjs55888.com
p1544
aVxjs55999.com
p1545
aVxjs66888.com
p1546
aVxjs66999.com
p1547
aVxjs77666.com
p1548
aVxjs77888.com
p1549
aVxjs77999.com
p1550
aVxjs88666.com
p1551
aVxjs88999.com
p1552
aVxjs99666.com
p1553
aVxjs99888.com
p1554
aVxpj0070.com
p1555
aVxpj0080.com
p1556
aVxpj033.com
p1557
aVxpj11113.com
p1558
aVxpj11115.com
p1559
aVxpj1233.com
p1560
aVxpj1538.com
p1561
aVxpj1548.com
p1562
aVxpj1568.com
p1563
aVxpj1578.com
p1564
aVxpj22220.com
p1565
aVxpj2355.com
p1566
aVxpj3.am
p1567
aVxpj333.am
p1568
aVxpj33330.com
p1569
aVxpj33331.com
p1570
aVxpj335.com
p1571
aVxpj3399b.com
p1572
aVxpj3399c.com
p1573
aVxpj3399d.com
p1574
aVxpj3399e.com
p1575
aVxpj3399f.com
p1576
aVxpj356.com
p1577
aVxpj358.com
p1578
aVxpj359.com
p1579
aVxpj4.am
p1580
aVxpj44440.com
p1581
aVxpj44441.com
p1582
aVxpj4566.com
p1583
aVxpj5345.com
p1584
aVxpj55509.com
p1585
aVxpj6.am
p1586
aVxpj6162.com
p1587
aVxpj6789.com
p1588
aVxpj69111.com
p1589
aVxpj7747.com
p1590
aVxpj7897.com
p1591
aVxpj7899.com
p1592
aVxpj8182.cc
p1593
aVxpj839.com
p1594
aVxpj869.com
p1595
aVxpj87.vip
p1596
aVxpj8880.com
p1597
aVxpj898.com
p1598
aVxpj99981.com
p1599
aVxpj99982.com
p1600
aVxpj99988.com
p1601
aVxpjav10.com
p1602
aVxpjav11.com
p1603
aVxpjav12.com
p1604
aVxpjav15.com
p1605
aVxpjav16.com
p1606
aVxpjav18.com
p1607
aVxpjav19.com
p1608
aVxpjav22.com
p1609
aVxpjav24.com
p1610
aVxpjav25.com
p1611
aVxpjav26.com
p1612
aVxpjav27.com
p1613
aVxpjav29.com
p1614
aVxpjav55.com
p1615
aVxpjav66.com
p1616
aVxpjav77.com
p1617
aVxpjav88.com
p1618
aVxpjav99.com
p1619
aVxpjj1.com
p1620
aVxpjj2.com
p1621
aVxpjj3.com
p1622
aVxpjj4.com
p1623
aVxpjj5.com
p1624
aVxpjj6.com
p1625
aVxpjj7.com
p1626
aVxpjj8.com
p1627
aVxpjvip.com
p1628
aVxx33b.com
p1629
aVxx33e.com
p1630
aVxx33f.com
p1631
aVxx33g.com
p1632
aVxx33h.com
p1633
aVxx33i.com
p1634
aVxx33l.com
p1635
aVxx33o.com
p1636
aVxx33p.com
p1637
aVxx33q.com
p1638
aVxx33r.com
p1639
aVxx33s.com
p1640
aVxx33t.com
p1641
aVxx33u.com
p1642
aVxx33v.com
p1643
aVxx33w.com
p1644
aVxx33x.com
p1645
aVxx33y.com
p1646
aVxx33z.com
p1647
aVxx44442.com
p1648
aVxx5486.com
p1649
aVxx6728.com
p1650
aVxyh55.com
p1651
aVy00228.com
p1652
aVy0088hg.com
p1653
aVy04889.com
p1654
aVy1110.com
p1655
aVy2220.com
p1656
aVy3330.com
p1657
aVy35151.com
p1658
aVy41669.com
p1659
aVy4440.com
p1660
aVy55523.com
p1661
aVy6199.com
p1662
aVy65056.com
p1663
aVy6660.com
p1664
aVy7191.com
p1665
aVy7378.com
p1666
aVy779911.com
p1667
aVy8309.com
p1668
aVy99345.am
p1669
aVyd2222.com
p1670
aVyd2223.com
p1671
aVyd2226.com
p1672
aVyd2229.com
p1673
aVydb.ag
p1674
aVydb520.com
p1675
aVydbvip.com
p1676
aVyh015555.com
p1677
aVyh025555.com
p1678
aVyh035555.com
p1679
aVyh055555.com
p1680
aVyh065555.com
p1681
aVyh075555.com
p1682
aVyh085555.com
p1683
aVyh095555.com
p1684
aVyh34341.com
p1685
aVyh34342.com
p1686
aVyh34343.com
p1687
aVyh34344.com
p1688
aVyh34346.com
p1689
aVyh34347.com
p1690
aVyh34348.com
p1691
aVyh34349.com
p1692
aVyh66676.com
p1693
aVyh76.com
p1694
aVyh76h.com
p1695
aVyh888a3.com
p1696
aVyh888a4.com
p1697
aVyh888a6.com
p1698
aVyh888a8.com
p1699
aVyinhe.cc
p1700
aVyl12322.com
p1701
aVyl12333.com
p1702
aVyl608.com
p1703
aVyl660.com
p1704
aVyl661.com
p1705
aVyl682.com
p1706
aVyl683.com
p1707
aVyl685.com
p1708
aVyl7001.net
p1709
aVyl7002.net
p1710
aVyl7003.net
p1711
aVyl7004.net
p1712
aVyl7005.net
p1713
aVyl7006.net
p1714
aVyl7008.net
p1715
aVyl7009.net
p1716
aVyl781.com
p1717
aVyl782.com
p1718
aVyl9200.com
p1719
aVyl9300.com
p1720
aVyl9400.com
p1721
aVyl9500.com
p1722
aVyl9600.com
p1723
aVylam.cc
p1724
aVylam0.com
p1725
aVylam1.com
p1726
aVylam2.com
p1727
aVylam3.com
p1728
aVylam4.com
p1729
aVylam5.com
p1730
aVylam6.com
p1731
aVylam7.com
p1732
aVylam9.com
p1733
aVylg55789.com
p1734
aVylg66789.com
p1735
aVylg77789.com
p1736
aVylhg6677.com
p1737
aVyongli.tv
p1738
aVyongli.tw
p1739
aVyy23488.com
p1740
aVyy5486.com
p1741
aVyy6008.com
p1742
aVz00228.com
p1743
aVz04889.com
p1744
aVz1386.com
p1745
aVz2490.com
p1746
aVz35151.com
p1747
aVz4129.com
p1748
aVz41669.com
p1749
aVz55523.com
p1750
aVz567.com
p1751
aVz65056.com
p1752
aVz7378.com
p1753
aVz779911.com
p1754
aVz8309.com
p1755
aVz93488.com
p1756
aVz99138.cc
p1757
aVz99138.com
p1758
aVz99345.am
p1759
aVzhcp55.com
p1760
aVzhcp88.com
p1761
aVzz23488.com
p1762
aVzz5486.com
p1763
aVzz6534.com
p1764
a.